
controlBoxV1.elf:     file format elf32-avr

Sections:
Idx Name          Size      VMA       LMA       File off  Algn
  0 .data         0000000c  00800100  00000fe8  0000107c  2**0
                  CONTENTS, ALLOC, LOAD, DATA
  1 .text         00000fe8  00000000  00000000  00000094  2**1
                  CONTENTS, ALLOC, LOAD, READONLY, CODE
  2 .bss          00000331  0080010c  0080010c  00001088  2**0
                  ALLOC
  3 .comment      00000030  00000000  00000000  00001088  2**0
                  CONTENTS, READONLY
  4 .note.gnu.avr.deviceinfo 00000040  00000000  00000000  000010b8  2**2
                  CONTENTS, READONLY
  5 .debug_aranges 00000268  00000000  00000000  000010f8  2**0
                  CONTENTS, READONLY, DEBUGGING
  6 .debug_info   00002595  00000000  00000000  00001360  2**0
                  CONTENTS, READONLY, DEBUGGING
  7 .debug_abbrev 0000118b  00000000  00000000  000038f5  2**0
                  CONTENTS, READONLY, DEBUGGING
  8 .debug_line   000018a7  00000000  00000000  00004a80  2**0
                  CONTENTS, READONLY, DEBUGGING
  9 .debug_frame  00000504  00000000  00000000  00006328  2**2
                  CONTENTS, READONLY, DEBUGGING
 10 .debug_str    00000b0f  00000000  00000000  0000682c  2**0
                  CONTENTS, READONLY, DEBUGGING
 11 .debug_loc    00000986  00000000  00000000  0000733b  2**0
                  CONTENTS, READONLY, DEBUGGING
 12 .debug_ranges 000001f8  00000000  00000000  00007cc1  2**0
                  CONTENTS, READONLY, DEBUGGING

Disassembly of section .text:

00000000 <__vectors>:
   0:	0c 94 5a 00 	jmp	0xb4	; 0xb4 <__ctors_end>
   4:	0c 94 77 00 	jmp	0xee	; 0xee <__bad_interrupt>
   8:	0c 94 77 00 	jmp	0xee	; 0xee <__bad_interrupt>
   c:	0c 94 77 00 	jmp	0xee	; 0xee <__bad_interrupt>
  10:	0c 94 77 00 	jmp	0xee	; 0xee <__bad_interrupt>
  14:	0c 94 77 00 	jmp	0xee	; 0xee <__bad_interrupt>
  18:	0c 94 77 00 	jmp	0xee	; 0xee <__bad_interrupt>
  1c:	0c 94 79 00 	jmp	0xf2	; 0xf2 <__vector_7>
  20:	0c 94 77 00 	jmp	0xee	; 0xee <__bad_interrupt>
  24:	0c 94 77 00 	jmp	0xee	; 0xee <__bad_interrupt>
  28:	0c 94 77 00 	jmp	0xee	; 0xee <__bad_interrupt>
  2c:	0c 94 77 00 	jmp	0xee	; 0xee <__bad_interrupt>
  30:	0c 94 77 00 	jmp	0xee	; 0xee <__bad_interrupt>
  34:	0c 94 77 00 	jmp	0xee	; 0xee <__bad_interrupt>
  38:	0c 94 77 00 	jmp	0xee	; 0xee <__bad_interrupt>
  3c:	0c 94 77 00 	jmp	0xee	; 0xee <__bad_interrupt>
  40:	0c 94 77 00 	jmp	0xee	; 0xee <__bad_interrupt>
  44:	0c 94 77 00 	jmp	0xee	; 0xee <__bad_interrupt>
  48:	0c 94 5b 03 	jmp	0x6b6	; 0x6b6 <__vector_18>
  4c:	0c 94 77 00 	jmp	0xee	; 0xee <__bad_interrupt>
  50:	0c 94 77 00 	jmp	0xee	; 0xee <__bad_interrupt>
  54:	0c 94 77 00 	jmp	0xee	; 0xee <__bad_interrupt>
  58:	0c 94 77 00 	jmp	0xee	; 0xee <__bad_interrupt>
  5c:	0c 94 77 00 	jmp	0xee	; 0xee <__bad_interrupt>
  60:	0c 94 77 00 	jmp	0xee	; 0xee <__bad_interrupt>
  64:	0c 94 77 00 	jmp	0xee	; 0xee <__bad_interrupt>
  68:	0c 94 77 00 	jmp	0xee	; 0xee <__bad_interrupt>
  6c:	0c 94 77 00 	jmp	0xee	; 0xee <__bad_interrupt>
  70:	0c 94 81 03 	jmp	0x702	; 0x702 <__vector_28>
  74:	0c 94 77 00 	jmp	0xee	; 0xee <__bad_interrupt>
  78:	0c 94 77 00 	jmp	0xee	; 0xee <__bad_interrupt>
  7c:	0c 94 77 00 	jmp	0xee	; 0xee <__bad_interrupt>
  80:	0c 94 77 00 	jmp	0xee	; 0xee <__bad_interrupt>
  84:	0c 94 77 00 	jmp	0xee	; 0xee <__bad_interrupt>
  88:	0c 94 77 00 	jmp	0xee	; 0xee <__bad_interrupt>
  8c:	0c 94 77 00 	jmp	0xee	; 0xee <__bad_interrupt>
  90:	0c 94 77 00 	jmp	0xee	; 0xee <__bad_interrupt>
  94:	0c 94 77 00 	jmp	0xee	; 0xee <__bad_interrupt>
  98:	0c 94 77 00 	jmp	0xee	; 0xee <__bad_interrupt>
  9c:	0c 94 77 00 	jmp	0xee	; 0xee <__bad_interrupt>
  a0:	0c 94 77 00 	jmp	0xee	; 0xee <__bad_interrupt>
  a4:	0c 94 77 00 	jmp	0xee	; 0xee <__bad_interrupt>
  a8:	0c 94 77 00 	jmp	0xee	; 0xee <__bad_interrupt>
  ac:	0c 94 77 00 	jmp	0xee	; 0xee <__bad_interrupt>
  b0:	0c 94 77 00 	jmp	0xee	; 0xee <__bad_interrupt>

000000b4 <__ctors_end>:
  b4:	11 24       	eor	r1, r1
  b6:	1f be       	out	0x3f, r1	; 63
  b8:	cf ef       	ldi	r28, 0xFF	; 255
  ba:	d8 e0       	ldi	r29, 0x08	; 8
  bc:	de bf       	out	0x3e, r29	; 62
  be:	cd bf       	out	0x3d, r28	; 61

000000c0 <__do_copy_data>:
  c0:	11 e0       	ldi	r17, 0x01	; 1
  c2:	a0 e0       	ldi	r26, 0x00	; 0
  c4:	b1 e0       	ldi	r27, 0x01	; 1
  c6:	e8 ee       	ldi	r30, 0xE8	; 232
  c8:	ff e0       	ldi	r31, 0x0F	; 15
  ca:	02 c0       	rjmp	.+4      	; 0xd0 <__do_copy_data+0x10>
  cc:	05 90       	lpm	r0, Z+
  ce:	0d 92       	st	X+, r0
  d0:	ac 30       	cpi	r26, 0x0C	; 12
  d2:	b1 07       	cpc	r27, r17
  d4:	d9 f7       	brne	.-10     	; 0xcc <__do_copy_data+0xc>

000000d6 <__do_clear_bss>:
  d6:	24 e0       	ldi	r18, 0x04	; 4
  d8:	ac e0       	ldi	r26, 0x0C	; 12
  da:	b1 e0       	ldi	r27, 0x01	; 1
  dc:	01 c0       	rjmp	.+2      	; 0xe0 <.do_clear_bss_start>

000000de <.do_clear_bss_loop>:
  de:	1d 92       	st	X+, r1

000000e0 <.do_clear_bss_start>:
  e0:	ad 33       	cpi	r26, 0x3D	; 61
  e2:	b2 07       	cpc	r27, r18
  e4:	e1 f7       	brne	.-8      	; 0xde <.do_clear_bss_loop>
  e6:	0e 94 a7 03 	call	0x74e	; 0x74e <main>
  ea:	0c 94 f2 07 	jmp	0xfe4	; 0xfe4 <_exit>

000000ee <__bad_interrupt>:
  ee:	0c 94 00 00 	jmp	0	; 0x0 <__vectors>

000000f2 <__vector_7>:
  f2:	1f 92       	push	r1
  f4:	0f 92       	push	r0
  f6:	0f b6       	in	r0, 0x3f	; 63
  f8:	0f 92       	push	r0
  fa:	11 24       	eor	r1, r1
  fc:	8f 93       	push	r24
  fe:	80 91 0c 01 	lds	r24, 0x010C	; 0x80010c <__data_end>
 102:	8f 5f       	subi	r24, 0xFF	; 255
 104:	80 93 0c 01 	sts	0x010C, r24	; 0x80010c <__data_end>
 108:	8f 91       	pop	r24
 10a:	0f 90       	pop	r0
 10c:	0f be       	out	0x3f, r0	; 63
 10e:	0f 90       	pop	r0
 110:	1f 90       	pop	r1
 112:	18 95       	reti

00000114 <hal_process>:
 114:	cf 92       	push	r12
 116:	df 92       	push	r13
 118:	ef 92       	push	r14
 11a:	ff 92       	push	r15
 11c:	e0 e7       	ldi	r30, 0x70	; 112
 11e:	f0 e0       	ldi	r31, 0x00	; 0
 120:	80 81       	ld	r24, Z
 122:	8d 7f       	andi	r24, 0xFD	; 253
 124:	80 83       	st	Z, r24
 126:	80 91 0c 01 	lds	r24, 0x010C	; 0x80010c <__data_end>
 12a:	88 23       	and	r24, r24
 12c:	09 f4       	brne	.+2      	; 0x130 <hal_process+0x1c>
 12e:	41 c0       	rjmp	.+130    	; 0x1b2 <hal_process+0x9e>
 130:	20 e2       	ldi	r18, 0x20	; 32
 132:	33 e0       	ldi	r19, 0x03	; 3
 134:	82 9f       	mul	r24, r18
 136:	60 01       	movw	r12, r0
 138:	83 9f       	mul	r24, r19
 13a:	d0 0c       	add	r13, r0
 13c:	11 24       	eor	r1, r1
 13e:	e0 91 05 01 	lds	r30, 0x0105	; 0x800105 <hal_timers>
 142:	f0 91 06 01 	lds	r31, 0x0106	; 0x800106 <hal_timers+0x1>
 146:	30 97       	sbiw	r30, 0x00	; 0
 148:	91 f1       	breq	.+100    	; 0x1ae <hal_process+0x9a>
 14a:	20 e0       	ldi	r18, 0x00	; 0
 14c:	0d 2c       	mov	r0, r13
 14e:	00 0c       	add	r0, r0
 150:	ee 08       	sbc	r14, r14
 152:	ff 08       	sbc	r15, r15
 154:	80 81       	ld	r24, Z
 156:	91 81       	ldd	r25, Z+1	; 0x01
 158:	a2 81       	ldd	r26, Z+2	; 0x02
 15a:	b3 81       	ldd	r27, Z+3	; 0x03
 15c:	ac 01       	movw	r20, r24
 15e:	bd 01       	movw	r22, r26
 160:	41 50       	subi	r20, 0x01	; 1
 162:	51 09       	sbc	r21, r1
 164:	61 09       	sbc	r22, r1
 166:	71 09       	sbc	r23, r1
 168:	4e 3f       	cpi	r20, 0xFE	; 254
 16a:	5f 4f       	sbci	r21, 0xFF	; 255
 16c:	6f 4f       	sbci	r22, 0xFF	; 255
 16e:	7f 4f       	sbci	r23, 0xFF	; 255
 170:	90 f4       	brcc	.+36     	; 0x196 <hal_process+0x82>
 172:	c8 16       	cp	r12, r24
 174:	d9 06       	cpc	r13, r25
 176:	ea 06       	cpc	r14, r26
 178:	fb 06       	cpc	r15, r27
 17a:	28 f0       	brcs	.+10     	; 0x186 <hal_process+0x72>
 17c:	10 82       	st	Z, r1
 17e:	11 82       	std	Z+1, r1	; 0x01
 180:	12 82       	std	Z+2, r1	; 0x02
 182:	13 82       	std	Z+3, r1	; 0x03
 184:	08 c0       	rjmp	.+16     	; 0x196 <hal_process+0x82>
 186:	8c 19       	sub	r24, r12
 188:	9d 09       	sbc	r25, r13
 18a:	ae 09       	sbc	r26, r14
 18c:	bf 09       	sbc	r27, r15
 18e:	80 83       	st	Z, r24
 190:	91 83       	std	Z+1, r25	; 0x01
 192:	a2 83       	std	Z+2, r26	; 0x02
 194:	b3 83       	std	Z+3, r27	; 0x03
 196:	2f 5f       	subi	r18, 0xFF	; 255
 198:	e2 2f       	mov	r30, r18
 19a:	f0 e0       	ldi	r31, 0x00	; 0
 19c:	ee 0f       	add	r30, r30
 19e:	ff 1f       	adc	r31, r31
 1a0:	eb 5f       	subi	r30, 0xFB	; 251
 1a2:	fe 4f       	sbci	r31, 0xFE	; 254
 1a4:	01 90       	ld	r0, Z+
 1a6:	f0 81       	ld	r31, Z
 1a8:	e0 2d       	mov	r30, r0
 1aa:	30 97       	sbiw	r30, 0x00	; 0
 1ac:	99 f6       	brne	.-90     	; 0x154 <hal_process+0x40>
 1ae:	10 92 0c 01 	sts	0x010C, r1	; 0x80010c <__data_end>
 1b2:	e0 e7       	ldi	r30, 0x70	; 112
 1b4:	f0 e0       	ldi	r31, 0x00	; 0
 1b6:	80 81       	ld	r24, Z
 1b8:	82 60       	ori	r24, 0x02	; 2
 1ba:	80 83       	st	Z, r24
 1bc:	ff 90       	pop	r15
 1be:	ef 90       	pop	r14
 1c0:	df 90       	pop	r13
 1c2:	cf 90       	pop	r12
 1c4:	08 95       	ret

000001c6 <USART0_init>:
 1c6:	10 92 c5 00 	sts	0x00C5, r1	; 0x8000c5 <__TEXT_REGION_LENGTH__+0x7e00c5>
 1ca:	87 e6       	ldi	r24, 0x67	; 103
 1cc:	80 93 c4 00 	sts	0x00C4, r24	; 0x8000c4 <__TEXT_REGION_LENGTH__+0x7e00c4>
 1d0:	88 e9       	ldi	r24, 0x98	; 152
 1d2:	80 93 c1 00 	sts	0x00C1, r24	; 0x8000c1 <__TEXT_REGION_LENGTH__+0x7e00c1>
 1d6:	86 e0       	ldi	r24, 0x06	; 6
 1d8:	80 93 c2 00 	sts	0x00C2, r24	; 0x8000c2 <__TEXT_REGION_LENGTH__+0x7e00c2>
 1dc:	08 95       	ret

000001de <USART0_setToReceive>:
 1de:	54 9a       	sbi	0x0a, 4	; 10
 1e0:	5c 98       	cbi	0x0b, 4	; 11
 1e2:	e1 ec       	ldi	r30, 0xC1	; 193
 1e4:	f0 e0       	ldi	r31, 0x00	; 0
 1e6:	80 81       	ld	r24, Z
 1e8:	87 7f       	andi	r24, 0xF7	; 247
 1ea:	80 83       	st	Z, r24
 1ec:	80 81       	ld	r24, Z
 1ee:	80 68       	ori	r24, 0x80	; 128
 1f0:	80 83       	st	Z, r24
 1f2:	51 98       	cbi	0x0a, 1	; 10
 1f4:	08 95       	ret

000001f6 <USART1_init>:
 1f6:	10 92 cd 00 	sts	0x00CD, r1	; 0x8000cd <__TEXT_REGION_LENGTH__+0x7e00cd>
 1fa:	87 e6       	ldi	r24, 0x67	; 103
 1fc:	80 93 cc 00 	sts	0x00CC, r24	; 0x8000cc <__TEXT_REGION_LENGTH__+0x7e00cc>
 200:	88 e9       	ldi	r24, 0x98	; 152
 202:	80 93 c9 00 	sts	0x00C9, r24	; 0x8000c9 <__TEXT_REGION_LENGTH__+0x7e00c9>
 206:	86 e0       	ldi	r24, 0x06	; 6
 208:	80 93 ca 00 	sts	0x00CA, r24	; 0x8000ca <__TEXT_REGION_LENGTH__+0x7e00ca>
 20c:	08 95       	ret

0000020e <USART1_setToTransmit>:
 20e:	25 9a       	sbi	0x04, 5	; 4
 210:	2d 9a       	sbi	0x05, 5	; 5
 212:	e9 ec       	ldi	r30, 0xC9	; 201
 214:	f0 e0       	ldi	r31, 0x00	; 0
 216:	80 81       	ld	r24, Z
 218:	88 60       	ori	r24, 0x08	; 8
 21a:	80 83       	st	Z, r24
 21c:	80 81       	ld	r24, Z
 21e:	8f 77       	andi	r24, 0x7F	; 127
 220:	80 83       	st	Z, r24
 222:	08 95       	ret

00000224 <hal_init>:
 224:	82 e0       	ldi	r24, 0x02	; 2
 226:	80 93 b0 00 	sts	0x00B0, r24	; 0x8000b0 <__TEXT_REGION_LENGTH__+0x7e00b0>
 22a:	95 e0       	ldi	r25, 0x05	; 5
 22c:	90 93 b1 00 	sts	0x00B1, r25	; 0x8000b1 <__TEXT_REGION_LENGTH__+0x7e00b1>
 230:	93 e6       	ldi	r25, 0x63	; 99
 232:	90 93 b3 00 	sts	0x00B3, r25	; 0x8000b3 <__TEXT_REGION_LENGTH__+0x7e00b3>
 236:	80 93 70 00 	sts	0x0070, r24	; 0x800070 <__TEXT_REGION_LENGTH__+0x7e0070>
 23a:	0e 94 e3 00 	call	0x1c6	; 0x1c6 <USART0_init>
 23e:	0e 94 fb 00 	call	0x1f6	; 0x1f6 <USART1_init>
 242:	0e 94 ef 00 	call	0x1de	; 0x1de <USART0_setToReceive>
 246:	0e 94 07 01 	call	0x20e	; 0x20e <USART1_setToTransmit>
 24a:	08 95       	ret

0000024c <USART1_sendChar>:
 24c:	e8 ec       	ldi	r30, 0xC8	; 200
 24e:	f0 e0       	ldi	r31, 0x00	; 0
 250:	90 81       	ld	r25, Z
 252:	95 ff       	sbrs	r25, 5
 254:	fd cf       	rjmp	.-6      	; 0x250 <USART1_sendChar+0x4>
 256:	80 93 ce 00 	sts	0x00CE, r24	; 0x8000ce <__TEXT_REGION_LENGTH__+0x7e00ce>
 25a:	08 95       	ret

0000025c <USART1_sendStringWL>:
 25c:	0f 93       	push	r16
 25e:	1f 93       	push	r17
 260:	cf 93       	push	r28
 262:	df 93       	push	r29
 264:	ec 01       	movw	r28, r24
 266:	66 23       	and	r22, r22
 268:	99 f0       	breq	.+38     	; 0x290 <USART1_sendStringWL+0x34>
 26a:	61 50       	subi	r22, 0x01	; 1
 26c:	06 2f       	mov	r16, r22
 26e:	10 e0       	ldi	r17, 0x00	; 0
 270:	0f 5f       	subi	r16, 0xFF	; 255
 272:	1f 4f       	sbci	r17, 0xFF	; 255
 274:	08 0f       	add	r16, r24
 276:	19 1f       	adc	r17, r25
 278:	89 91       	ld	r24, Y+
 27a:	0e 94 26 01 	call	0x24c	; 0x24c <USART1_sendChar>
 27e:	8f e3       	ldi	r24, 0x3F	; 63
 280:	9f e1       	ldi	r25, 0x1F	; 31
 282:	01 97       	sbiw	r24, 0x01	; 1
 284:	f1 f7       	brne	.-4      	; 0x282 <USART1_sendStringWL+0x26>
 286:	00 c0       	rjmp	.+0      	; 0x288 <USART1_sendStringWL+0x2c>
 288:	00 00       	nop
 28a:	c0 17       	cp	r28, r16
 28c:	d1 07       	cpc	r29, r17
 28e:	a1 f7       	brne	.-24     	; 0x278 <USART1_sendStringWL+0x1c>
 290:	df 91       	pop	r29
 292:	cf 91       	pop	r28
 294:	1f 91       	pop	r17
 296:	0f 91       	pop	r16
 298:	08 95       	ret

0000029a <TWI1_init>:
 29a:	10 92 d9 00 	sts	0x00D9, r1	; 0x8000d9 <__TEXT_REGION_LENGTH__+0x7e00d9>
 29e:	88 e4       	ldi	r24, 0x48	; 72
 2a0:	80 93 d8 00 	sts	0x00D8, r24	; 0x8000d8 <__TEXT_REGION_LENGTH__+0x7e00d8>
 2a4:	08 95       	ret

000002a6 <TWI1_stop>:
 2a6:	84 e9       	ldi	r24, 0x94	; 148
 2a8:	80 93 dc 00 	sts	0x00DC, r24	; 0x8000dc <__TEXT_REGION_LENGTH__+0x7e00dc>
 2ac:	ec ed       	ldi	r30, 0xDC	; 220
 2ae:	f0 e0       	ldi	r31, 0x00	; 0
 2b0:	80 81       	ld	r24, Z
 2b2:	84 fd       	sbrc	r24, 4
 2b4:	fd cf       	rjmp	.-6      	; 0x2b0 <TWI1_stop+0xa>
 2b6:	08 95       	ret

000002b8 <TWI1_start>:
 2b8:	94 ea       	ldi	r25, 0xA4	; 164
 2ba:	90 93 dc 00 	sts	0x00DC, r25	; 0x8000dc <__TEXT_REGION_LENGTH__+0x7e00dc>
 2be:	ec ed       	ldi	r30, 0xDC	; 220
 2c0:	f0 e0       	ldi	r31, 0x00	; 0
 2c2:	90 81       	ld	r25, Z
 2c4:	99 23       	and	r25, r25
 2c6:	ec f7       	brge	.-6      	; 0x2c2 <TWI1_start+0xa>
 2c8:	90 91 d9 00 	lds	r25, 0x00D9	; 0x8000d9 <__TEXT_REGION_LENGTH__+0x7e00d9>
 2cc:	98 7f       	andi	r25, 0xF8	; 248
 2ce:	98 30       	cpi	r25, 0x08	; 8
 2d0:	29 f0       	breq	.+10     	; 0x2dc <TWI1_start+0x24>
 2d2:	90 91 d9 00 	lds	r25, 0x00D9	; 0x8000d9 <__TEXT_REGION_LENGTH__+0x7e00d9>
 2d6:	98 7f       	andi	r25, 0xF8	; 248
 2d8:	90 31       	cpi	r25, 0x10	; 16
 2da:	b9 f4       	brne	.+46     	; 0x30a <TWI1_start+0x52>
 2dc:	80 93 db 00 	sts	0x00DB, r24	; 0x8000db <__TEXT_REGION_LENGTH__+0x7e00db>
 2e0:	84 e8       	ldi	r24, 0x84	; 132
 2e2:	80 93 dc 00 	sts	0x00DC, r24	; 0x8000dc <__TEXT_REGION_LENGTH__+0x7e00dc>
 2e6:	ec ed       	ldi	r30, 0xDC	; 220
 2e8:	f0 e0       	ldi	r31, 0x00	; 0
 2ea:	80 81       	ld	r24, Z
 2ec:	88 23       	and	r24, r24
 2ee:	ec f7       	brge	.-6      	; 0x2ea <TWI1_start+0x32>
 2f0:	80 91 d9 00 	lds	r24, 0x00D9	; 0x8000d9 <__TEXT_REGION_LENGTH__+0x7e00d9>
 2f4:	88 7f       	andi	r24, 0xF8	; 248
 2f6:	88 31       	cpi	r24, 0x18	; 24
 2f8:	51 f0       	breq	.+20     	; 0x30e <TWI1_start+0x56>
 2fa:	90 91 d9 00 	lds	r25, 0x00D9	; 0x8000d9 <__TEXT_REGION_LENGTH__+0x7e00d9>
 2fe:	98 7f       	andi	r25, 0xF8	; 248
 300:	81 e0       	ldi	r24, 0x01	; 1
 302:	90 34       	cpi	r25, 0x40	; 64
 304:	29 f4       	brne	.+10     	; 0x310 <TWI1_start+0x58>
 306:	80 e0       	ldi	r24, 0x00	; 0
 308:	08 95       	ret
 30a:	81 e0       	ldi	r24, 0x01	; 1
 30c:	08 95       	ret
 30e:	80 e0       	ldi	r24, 0x00	; 0
 310:	08 95       	ret

00000312 <TWI1_write>:
 312:	80 93 db 00 	sts	0x00DB, r24	; 0x8000db <__TEXT_REGION_LENGTH__+0x7e00db>
 316:	84 e8       	ldi	r24, 0x84	; 132
 318:	80 93 dc 00 	sts	0x00DC, r24	; 0x8000dc <__TEXT_REGION_LENGTH__+0x7e00dc>
 31c:	ec ed       	ldi	r30, 0xDC	; 220
 31e:	f0 e0       	ldi	r31, 0x00	; 0
 320:	80 81       	ld	r24, Z
 322:	88 23       	and	r24, r24
 324:	ec f7       	brge	.-6      	; 0x320 <TWI1_write+0xe>
 326:	90 91 d9 00 	lds	r25, 0x00D9	; 0x8000d9 <__TEXT_REGION_LENGTH__+0x7e00d9>
 32a:	98 7f       	andi	r25, 0xF8	; 248
 32c:	81 e0       	ldi	r24, 0x01	; 1
 32e:	98 32       	cpi	r25, 0x28	; 40
 330:	09 f4       	brne	.+2      	; 0x334 <TWI1_write+0x22>
 332:	80 e0       	ldi	r24, 0x00	; 0
 334:	08 95       	ret

00000336 <TWI1_readAck>:
 336:	84 ec       	ldi	r24, 0xC4	; 196
 338:	80 93 dc 00 	sts	0x00DC, r24	; 0x8000dc <__TEXT_REGION_LENGTH__+0x7e00dc>
 33c:	ec ed       	ldi	r30, 0xDC	; 220
 33e:	f0 e0       	ldi	r31, 0x00	; 0
 340:	80 81       	ld	r24, Z
 342:	88 23       	and	r24, r24
 344:	ec f7       	brge	.-6      	; 0x340 <TWI1_readAck+0xa>
 346:	80 91 db 00 	lds	r24, 0x00DB	; 0x8000db <__TEXT_REGION_LENGTH__+0x7e00db>
 34a:	08 95       	ret

0000034c <TWI1_readNAck>:
 34c:	84 e8       	ldi	r24, 0x84	; 132
 34e:	80 93 dc 00 	sts	0x00DC, r24	; 0x8000dc <__TEXT_REGION_LENGTH__+0x7e00dc>
 352:	ec ed       	ldi	r30, 0xDC	; 220
 354:	f0 e0       	ldi	r31, 0x00	; 0
 356:	80 81       	ld	r24, Z
 358:	88 23       	and	r24, r24
 35a:	ec f7       	brge	.-6      	; 0x356 <TWI1_readNAck+0xa>
 35c:	80 91 db 00 	lds	r24, 0x00DB	; 0x8000db <__TEXT_REGION_LENGTH__+0x7e00db>
 360:	08 95       	ret

00000362 <DS1621_init>:
 362:	8e e9       	ldi	r24, 0x9E	; 158
 364:	0e 94 5c 01 	call	0x2b8	; 0x2b8 <TWI1_start>
	#else
		//round up by default
		__ticks_dc = (uint32_t)(ceil(fabs(__tmp)));
	#endif

	__builtin_avr_delay_cycles(__ticks_dc);
 368:	8f e9       	ldi	r24, 0x9F	; 159
 36a:	9f e0       	ldi	r25, 0x0F	; 15
 36c:	01 97       	sbiw	r24, 0x01	; 1
 36e:	f1 f7       	brne	.-4      	; 0x36c <DS1621_init+0xa>
 370:	00 c0       	rjmp	.+0      	; 0x372 <DS1621_init+0x10>
 372:	00 00       	nop
 374:	8c ea       	ldi	r24, 0xAC	; 172
 376:	0e 94 89 01 	call	0x312	; 0x312 <TWI1_write>
 37a:	8f e9       	ldi	r24, 0x9F	; 159
 37c:	9f e0       	ldi	r25, 0x0F	; 15
 37e:	01 97       	sbiw	r24, 0x01	; 1
 380:	f1 f7       	brne	.-4      	; 0x37e <DS1621_init+0x1c>
 382:	00 c0       	rjmp	.+0      	; 0x384 <DS1621_init+0x22>
 384:	00 00       	nop
 386:	80 e0       	ldi	r24, 0x00	; 0
 388:	0e 94 89 01 	call	0x312	; 0x312 <TWI1_write>
 38c:	8f e9       	ldi	r24, 0x9F	; 159
 38e:	9f e0       	ldi	r25, 0x0F	; 15
 390:	01 97       	sbiw	r24, 0x01	; 1
 392:	f1 f7       	brne	.-4      	; 0x390 <DS1621_init+0x2e>
 394:	00 c0       	rjmp	.+0      	; 0x396 <DS1621_init+0x34>
 396:	00 00       	nop
 398:	0e 94 53 01 	call	0x2a6	; 0x2a6 <TWI1_stop>
 39c:	8f e9       	ldi	r24, 0x9F	; 159
 39e:	9f e0       	ldi	r25, 0x0F	; 15
 3a0:	01 97       	sbiw	r24, 0x01	; 1
 3a2:	f1 f7       	brne	.-4      	; 0x3a0 <DS1621_init+0x3e>
 3a4:	00 c0       	rjmp	.+0      	; 0x3a6 <DS1621_init+0x44>
 3a6:	00 00       	nop
 3a8:	8e e9       	ldi	r24, 0x9E	; 158
 3aa:	0e 94 5c 01 	call	0x2b8	; 0x2b8 <TWI1_start>
 3ae:	8f e9       	ldi	r24, 0x9F	; 159
 3b0:	9f e0       	ldi	r25, 0x0F	; 15
 3b2:	01 97       	sbiw	r24, 0x01	; 1
 3b4:	f1 f7       	brne	.-4      	; 0x3b2 <DS1621_init+0x50>
 3b6:	00 c0       	rjmp	.+0      	; 0x3b8 <DS1621_init+0x56>
 3b8:	00 00       	nop
 3ba:	8e ee       	ldi	r24, 0xEE	; 238
 3bc:	0e 94 89 01 	call	0x312	; 0x312 <TWI1_write>
 3c0:	8f e9       	ldi	r24, 0x9F	; 159
 3c2:	9f e0       	ldi	r25, 0x0F	; 15
 3c4:	01 97       	sbiw	r24, 0x01	; 1
 3c6:	f1 f7       	brne	.-4      	; 0x3c4 <DS1621_init+0x62>
 3c8:	00 c0       	rjmp	.+0      	; 0x3ca <DS1621_init+0x68>
 3ca:	00 00       	nop
 3cc:	0e 94 53 01 	call	0x2a6	; 0x2a6 <TWI1_stop>
 3d0:	08 95       	ret

000003d2 <read_DS1621>:
 3d2:	cf 93       	push	r28
 3d4:	df 93       	push	r29
 3d6:	8e e9       	ldi	r24, 0x9E	; 158
 3d8:	0e 94 5c 01 	call	0x2b8	; 0x2b8 <TWI1_start>
 3dc:	8a ea       	ldi	r24, 0xAA	; 170
 3de:	0e 94 89 01 	call	0x312	; 0x312 <TWI1_write>
 3e2:	8f e9       	ldi	r24, 0x9F	; 159
 3e4:	0e 94 5c 01 	call	0x2b8	; 0x2b8 <TWI1_start>
 3e8:	0e 94 9b 01 	call	0x336	; 0x336 <TWI1_readAck>
 3ec:	c8 2f       	mov	r28, r24
 3ee:	0e 94 a6 01 	call	0x34c	; 0x34c <TWI1_readNAck>
 3f2:	d8 2f       	mov	r29, r24
 3f4:	0e 94 53 01 	call	0x2a6	; 0x2a6 <TWI1_stop>
 3f8:	2c 2f       	mov	r18, r28
 3fa:	30 e0       	ldi	r19, 0x00	; 0
 3fc:	cc 23       	and	r28, r28
 3fe:	d4 f4       	brge	.+52     	; 0x434 <__LOCK_REGION_LENGTH__+0x34>
 400:	32 2f       	mov	r19, r18
 402:	22 27       	eor	r18, r18
 404:	2d 2b       	or	r18, r29
 406:	40 e0       	ldi	r20, 0x00	; 0
 408:	50 e0       	ldi	r21, 0x00	; 0
 40a:	61 e0       	ldi	r22, 0x01	; 1
 40c:	70 e0       	ldi	r23, 0x00	; 0
 40e:	42 1b       	sub	r20, r18
 410:	53 0b       	sbc	r21, r19
 412:	61 09       	sbc	r22, r1
 414:	71 09       	sbc	r23, r1
 416:	68 94       	set
 418:	16 f8       	bld	r1, 6
 41a:	75 95       	asr	r23
 41c:	67 95       	ror	r22
 41e:	57 95       	ror	r21
 420:	47 95       	ror	r20
 422:	16 94       	lsr	r1
 424:	d1 f7       	brne	.-12     	; 0x41a <__LOCK_REGION_LENGTH__+0x1a>
 426:	2b ef       	ldi	r18, 0xFB	; 251
 428:	24 03       	mulsu	r18, r20
 42a:	c0 01       	movw	r24, r0
 42c:	25 9f       	mul	r18, r21
 42e:	90 0d       	add	r25, r0
 430:	11 24       	eor	r1, r1
 432:	10 c0       	rjmp	.+32     	; 0x454 <__LOCK_REGION_LENGTH__+0x54>
 434:	32 2f       	mov	r19, r18
 436:	22 27       	eor	r18, r18
 438:	c9 01       	movw	r24, r18
 43a:	8d 2b       	or	r24, r29
 43c:	88 0f       	add	r24, r24
 43e:	89 2f       	mov	r24, r25
 440:	88 1f       	adc	r24, r24
 442:	99 0b       	sbc	r25, r25
 444:	91 95       	neg	r25
 446:	9c 01       	movw	r18, r24
 448:	22 0f       	add	r18, r18
 44a:	33 1f       	adc	r19, r19
 44c:	22 0f       	add	r18, r18
 44e:	33 1f       	adc	r19, r19
 450:	82 0f       	add	r24, r18
 452:	93 1f       	adc	r25, r19
 454:	df 91       	pop	r29
 456:	cf 91       	pop	r28
 458:	08 95       	ret

0000045a <lightcontrol_init>:
 45a:	10 92 0d 01 	sts	0x010D, r1	; 0x80010d <state>
 45e:	81 e0       	ldi	r24, 0x01	; 1
 460:	80 93 2c 01 	sts	0x012C, r24	; 0x80012c <measLED_valid>
 464:	0e 94 2d 03 	call	0x65a	; 0x65a <lighcontrol_hal_init>
 468:	0e 94 33 03 	call	0x666	; 0x666 <brightness_fully_on>
 46c:	08 95       	ret

0000046e <lightcontrol_process>:
 46e:	80 91 0d 01 	lds	r24, 0x010D	; 0x80010d <state>
 472:	81 30       	cpi	r24, 0x01	; 1
 474:	f1 f1       	breq	.+124    	; 0x4f2 <lightcontrol_process+0x84>
 476:	38 f0       	brcs	.+14     	; 0x486 <lightcontrol_process+0x18>
 478:	82 30       	cpi	r24, 0x02	; 2
 47a:	09 f4       	brne	.+2      	; 0x47e <lightcontrol_process+0x10>
 47c:	ac c0       	rjmp	.+344    	; 0x5d6 <lightcontrol_process+0x168>
 47e:	83 30       	cpi	r24, 0x03	; 3
 480:	09 f4       	brne	.+2      	; 0x484 <lightcontrol_process+0x16>
 482:	6d c0       	rjmp	.+218    	; 0x55e <lightcontrol_process+0xf0>
 484:	08 95       	ret
 486:	80 91 09 02 	lds	r24, 0x0209	; 0x800209 <lightmode>
 48a:	81 11       	cpse	r24, r1
 48c:	07 c0       	rjmp	.+14     	; 0x49c <lightcontrol_process+0x2e>
 48e:	81 e0       	ldi	r24, 0x01	; 1
 490:	80 93 0d 01 	sts	0x010D, r24	; 0x80010d <state>
 494:	0e 94 38 03 	call	0x670	; 0x670 <brightness_fully_off>
 498:	10 92 2c 01 	sts	0x012C, r1	; 0x80012c <measLED_valid>
 49c:	80 91 09 02 	lds	r24, 0x0209	; 0x800209 <lightmode>
 4a0:	82 30       	cpi	r24, 0x02	; 2
 4a2:	69 f4       	brne	.+26     	; 0x4be <lightcontrol_process+0x50>
 4a4:	83 e0       	ldi	r24, 0x03	; 3
 4a6:	80 93 0d 01 	sts	0x010D, r24	; 0x80010d <state>
 4aa:	80 91 08 02 	lds	r24, 0x0208	; 0x800208 <brightness>
 4ae:	0e 94 3d 03 	call	0x67a	; 0x67a <set_brighntess>
 4b2:	80 91 08 02 	lds	r24, 0x0208	; 0x800208 <brightness>
 4b6:	80 93 17 01 	sts	0x0117, r24	; 0x800117 <act_brightness>
 4ba:	10 92 2c 01 	sts	0x012C, r1	; 0x80012c <measLED_valid>
 4be:	80 91 09 02 	lds	r24, 0x0209	; 0x800209 <lightmode>
 4c2:	83 30       	cpi	r24, 0x03	; 3
 4c4:	09 f0       	breq	.+2      	; 0x4c8 <lightcontrol_process+0x5a>
 4c6:	c8 c0       	rjmp	.+400    	; 0x658 <lightcontrol_process+0x1ea>
 4c8:	82 e0       	ldi	r24, 0x02	; 2
 4ca:	80 93 0d 01 	sts	0x010D, r24	; 0x80010d <state>
 4ce:	0e 94 33 03 	call	0x666	; 0x666 <brightness_fully_on>
 4d2:	81 e0       	ldi	r24, 0x01	; 1
 4d4:	80 93 2c 01 	sts	0x012C, r24	; 0x80012c <measLED_valid>
 4d8:	80 e4       	ldi	r24, 0x40	; 64
 4da:	92 e4       	ldi	r25, 0x42	; 66
 4dc:	af e0       	ldi	r26, 0x0F	; 15
 4de:	b0 e0       	ldi	r27, 0x00	; 0
 4e0:	80 93 13 01 	sts	0x0113, r24	; 0x800113 <light_timer>
 4e4:	90 93 14 01 	sts	0x0114, r25	; 0x800114 <light_timer+0x1>
 4e8:	a0 93 15 01 	sts	0x0115, r26	; 0x800115 <light_timer+0x2>
 4ec:	b0 93 16 01 	sts	0x0116, r27	; 0x800116 <light_timer+0x3>
 4f0:	08 95       	ret
 4f2:	80 91 09 02 	lds	r24, 0x0209	; 0x800209 <lightmode>
 4f6:	81 30       	cpi	r24, 0x01	; 1
 4f8:	39 f4       	brne	.+14     	; 0x508 <lightcontrol_process+0x9a>
 4fa:	10 92 0d 01 	sts	0x010D, r1	; 0x80010d <state>
 4fe:	0e 94 33 03 	call	0x666	; 0x666 <brightness_fully_on>
 502:	81 e0       	ldi	r24, 0x01	; 1
 504:	80 93 2c 01 	sts	0x012C, r24	; 0x80012c <measLED_valid>
 508:	80 91 09 02 	lds	r24, 0x0209	; 0x800209 <lightmode>
 50c:	82 30       	cpi	r24, 0x02	; 2
 50e:	69 f4       	brne	.+26     	; 0x52a <lightcontrol_process+0xbc>
 510:	83 e0       	ldi	r24, 0x03	; 3
 512:	80 93 0d 01 	sts	0x010D, r24	; 0x80010d <state>
 516:	80 91 08 02 	lds	r24, 0x0208	; 0x800208 <brightness>
 51a:	0e 94 3d 03 	call	0x67a	; 0x67a <set_brighntess>
 51e:	80 91 08 02 	lds	r24, 0x0208	; 0x800208 <brightness>
 522:	80 93 17 01 	sts	0x0117, r24	; 0x800117 <act_brightness>
 526:	10 92 2c 01 	sts	0x012C, r1	; 0x80012c <measLED_valid>
 52a:	80 91 09 02 	lds	r24, 0x0209	; 0x800209 <lightmode>
 52e:	83 30       	cpi	r24, 0x03	; 3
 530:	09 f0       	breq	.+2      	; 0x534 <lightcontrol_process+0xc6>
 532:	92 c0       	rjmp	.+292    	; 0x658 <lightcontrol_process+0x1ea>
 534:	82 e0       	ldi	r24, 0x02	; 2
 536:	80 93 0d 01 	sts	0x010D, r24	; 0x80010d <state>
 53a:	0e 94 33 03 	call	0x666	; 0x666 <brightness_fully_on>
 53e:	81 e0       	ldi	r24, 0x01	; 1
 540:	80 93 2c 01 	sts	0x012C, r24	; 0x80012c <measLED_valid>
 544:	80 e4       	ldi	r24, 0x40	; 64
 546:	92 e4       	ldi	r25, 0x42	; 66
 548:	af e0       	ldi	r26, 0x0F	; 15
 54a:	b0 e0       	ldi	r27, 0x00	; 0
 54c:	80 93 13 01 	sts	0x0113, r24	; 0x800113 <light_timer>
 550:	90 93 14 01 	sts	0x0114, r25	; 0x800114 <light_timer+0x1>
 554:	a0 93 15 01 	sts	0x0115, r26	; 0x800115 <light_timer+0x2>
 558:	b0 93 16 01 	sts	0x0116, r27	; 0x800116 <light_timer+0x3>
 55c:	08 95       	ret
 55e:	80 91 08 02 	lds	r24, 0x0208	; 0x800208 <brightness>
 562:	90 91 17 01 	lds	r25, 0x0117	; 0x800117 <act_brightness>
 566:	98 17       	cp	r25, r24
 568:	31 f0       	breq	.+12     	; 0x576 <lightcontrol_process+0x108>
 56a:	0e 94 3d 03 	call	0x67a	; 0x67a <set_brighntess>
 56e:	80 91 08 02 	lds	r24, 0x0208	; 0x800208 <brightness>
 572:	80 93 17 01 	sts	0x0117, r24	; 0x800117 <act_brightness>
 576:	80 91 09 02 	lds	r24, 0x0209	; 0x800209 <lightmode>
 57a:	81 11       	cpse	r24, r1
 57c:	07 c0       	rjmp	.+14     	; 0x58c <lightcontrol_process+0x11e>
 57e:	81 e0       	ldi	r24, 0x01	; 1
 580:	80 93 0d 01 	sts	0x010D, r24	; 0x80010d <state>
 584:	0e 94 38 03 	call	0x670	; 0x670 <brightness_fully_off>
 588:	10 92 2c 01 	sts	0x012C, r1	; 0x80012c <measLED_valid>
 58c:	80 91 09 02 	lds	r24, 0x0209	; 0x800209 <lightmode>
 590:	81 30       	cpi	r24, 0x01	; 1
 592:	39 f4       	brne	.+14     	; 0x5a2 <lightcontrol_process+0x134>
 594:	10 92 0d 01 	sts	0x010D, r1	; 0x80010d <state>
 598:	0e 94 33 03 	call	0x666	; 0x666 <brightness_fully_on>
 59c:	81 e0       	ldi	r24, 0x01	; 1
 59e:	80 93 2c 01 	sts	0x012C, r24	; 0x80012c <measLED_valid>
 5a2:	80 91 09 02 	lds	r24, 0x0209	; 0x800209 <lightmode>
 5a6:	83 30       	cpi	r24, 0x03	; 3
 5a8:	09 f0       	breq	.+2      	; 0x5ac <lightcontrol_process+0x13e>
 5aa:	56 c0       	rjmp	.+172    	; 0x658 <lightcontrol_process+0x1ea>
 5ac:	82 e0       	ldi	r24, 0x02	; 2
 5ae:	80 93 0d 01 	sts	0x010D, r24	; 0x80010d <state>
 5b2:	0e 94 33 03 	call	0x666	; 0x666 <brightness_fully_on>
 5b6:	81 e0       	ldi	r24, 0x01	; 1
 5b8:	80 93 2c 01 	sts	0x012C, r24	; 0x80012c <measLED_valid>
 5bc:	80 e4       	ldi	r24, 0x40	; 64
 5be:	92 e4       	ldi	r25, 0x42	; 66
 5c0:	af e0       	ldi	r26, 0x0F	; 15
 5c2:	b0 e0       	ldi	r27, 0x00	; 0
 5c4:	80 93 13 01 	sts	0x0113, r24	; 0x800113 <light_timer>
 5c8:	90 93 14 01 	sts	0x0114, r25	; 0x800114 <light_timer+0x1>
 5cc:	a0 93 15 01 	sts	0x0115, r26	; 0x800115 <light_timer+0x2>
 5d0:	b0 93 16 01 	sts	0x0116, r27	; 0x800116 <light_timer+0x3>
 5d4:	08 95       	ret
 5d6:	80 91 13 01 	lds	r24, 0x0113	; 0x800113 <light_timer>
 5da:	90 91 14 01 	lds	r25, 0x0114	; 0x800114 <light_timer+0x1>
 5de:	a0 91 15 01 	lds	r26, 0x0115	; 0x800115 <light_timer+0x2>
 5e2:	b0 91 16 01 	lds	r27, 0x0116	; 0x800116 <light_timer+0x3>
 5e6:	89 2b       	or	r24, r25
 5e8:	8a 2b       	or	r24, r26
 5ea:	8b 2b       	or	r24, r27
 5ec:	71 f4       	brne	.+28     	; 0x60a <lightcontrol_process+0x19c>
 5ee:	0e 94 42 03 	call	0x684	; 0x684 <inv_brightness>
 5f2:	80 e4       	ldi	r24, 0x40	; 64
 5f4:	92 e4       	ldi	r25, 0x42	; 66
 5f6:	af e0       	ldi	r26, 0x0F	; 15
 5f8:	b0 e0       	ldi	r27, 0x00	; 0
 5fa:	80 93 13 01 	sts	0x0113, r24	; 0x800113 <light_timer>
 5fe:	90 93 14 01 	sts	0x0114, r25	; 0x800114 <light_timer+0x1>
 602:	a0 93 15 01 	sts	0x0115, r26	; 0x800115 <light_timer+0x2>
 606:	b0 93 16 01 	sts	0x0116, r27	; 0x800116 <light_timer+0x3>
 60a:	80 91 09 02 	lds	r24, 0x0209	; 0x800209 <lightmode>
 60e:	81 11       	cpse	r24, r1
 610:	07 c0       	rjmp	.+14     	; 0x620 <lightcontrol_process+0x1b2>
 612:	81 e0       	ldi	r24, 0x01	; 1
 614:	80 93 0d 01 	sts	0x010D, r24	; 0x80010d <state>
 618:	0e 94 38 03 	call	0x670	; 0x670 <brightness_fully_off>
 61c:	10 92 2c 01 	sts	0x012C, r1	; 0x80012c <measLED_valid>
 620:	80 91 09 02 	lds	r24, 0x0209	; 0x800209 <lightmode>
 624:	81 30       	cpi	r24, 0x01	; 1
 626:	39 f4       	brne	.+14     	; 0x636 <lightcontrol_process+0x1c8>
 628:	10 92 0d 01 	sts	0x010D, r1	; 0x80010d <state>
 62c:	0e 94 33 03 	call	0x666	; 0x666 <brightness_fully_on>
 630:	81 e0       	ldi	r24, 0x01	; 1
 632:	80 93 2c 01 	sts	0x012C, r24	; 0x80012c <measLED_valid>
 636:	80 91 09 02 	lds	r24, 0x0209	; 0x800209 <lightmode>
 63a:	82 30       	cpi	r24, 0x02	; 2
 63c:	69 f4       	brne	.+26     	; 0x658 <lightcontrol_process+0x1ea>
 63e:	83 e0       	ldi	r24, 0x03	; 3
 640:	80 93 0d 01 	sts	0x010D, r24	; 0x80010d <state>
 644:	80 91 08 02 	lds	r24, 0x0208	; 0x800208 <brightness>
 648:	0e 94 3d 03 	call	0x67a	; 0x67a <set_brighntess>
 64c:	80 91 08 02 	lds	r24, 0x0208	; 0x800208 <brightness>
 650:	80 93 17 01 	sts	0x0117, r24	; 0x800117 <act_brightness>
 654:	10 92 2c 01 	sts	0x012C, r1	; 0x80012c <measLED_valid>
 658:	08 95       	ret

0000065a <lighcontrol_hal_init>:
 65a:	56 9a       	sbi	0x0a, 6	; 10
 65c:	83 ec       	ldi	r24, 0xC3	; 195
 65e:	84 bd       	out	0x24, r24	; 36
 660:	82 e0       	ldi	r24, 0x02	; 2
 662:	85 bd       	out	0x25, r24	; 37
 664:	08 95       	ret

00000666 <brightness_fully_on>:
 666:	84 b5       	in	r24, 0x24	; 36
 668:	8f 73       	andi	r24, 0x3F	; 63
 66a:	84 bd       	out	0x24, r24	; 36
 66c:	5e 98       	cbi	0x0b, 6	; 11
 66e:	08 95       	ret

00000670 <brightness_fully_off>:
 670:	84 b5       	in	r24, 0x24	; 36
 672:	8f 73       	andi	r24, 0x3F	; 63
 674:	84 bd       	out	0x24, r24	; 36
 676:	5e 9a       	sbi	0x0b, 6	; 11
 678:	08 95       	ret

0000067a <set_brighntess>:
 67a:	94 b5       	in	r25, 0x24	; 36
 67c:	90 6c       	ori	r25, 0xC0	; 192
 67e:	94 bd       	out	0x24, r25	; 36
 680:	87 bd       	out	0x27, r24	; 39
 682:	08 95       	ret

00000684 <inv_brightness>:
 684:	9b b1       	in	r25, 0x0b	; 11
 686:	80 e4       	ldi	r24, 0x40	; 64
 688:	89 27       	eor	r24, r25
 68a:	8b b9       	out	0x0b, r24	; 11
 68c:	08 95       	ret

0000068e <stateMachine>:
 typedef enum { NORMAL, BUSSYSTEM } state_t;
 state_t state = NORMAL;

 void stateMachine()
 {
	 switch (state)
 68e:	80 91 11 01 	lds	r24, 0x0111	; 0x800111 <state>
 692:	88 23       	and	r24, r24
 694:	19 f0       	breq	.+6      	; 0x69c <stateMachine+0xe>
 696:	81 30       	cpi	r24, 0x01	; 1
 698:	31 f0       	breq	.+12     	; 0x6a6 <stateMachine+0x18>
 69a:	0a c0       	rjmp	.+20     	; 0x6b0 <stateMachine+0x22>
	 {
		 case NORMAL:			/* normal operation state */
			lightcontrol_process();
 69c:	0e 94 37 02 	call	0x46e	; 0x46e <lightcontrol_process>
			measurement_process();
 6a0:	0e 94 f8 03 	call	0x7f0	; 0x7f0 <measurement_process>
		 break;
 6a4:	08 95       	ret

		 case BUSSYSTEM:		/* bus evaluation state */
			bus_process();
 6a6:	0e 94 ed 05 	call	0xbda	; 0xbda <bus_process>
			state = NORMAL;
 6aa:	10 92 11 01 	sts	0x0111, r1	; 0x800111 <state>
		 break;
 6ae:	08 95       	ret

		 default:
			state = NORMAL;		/* reset the stateMachine */
 6b0:	10 92 11 01 	sts	0x0111, r1	; 0x800111 <state>
 6b4:	08 95       	ret

000006b6 <__vector_18>:
 uint8_t bufferU1[BUFFERSIZE]; /* receive buffer UART1 */
 uint8_t writePointerU1 = 0;
 uint8_t readPointerU1 = 0;

ISR(USART0_RX_vect)
{
 6b6:	1f 92       	push	r1
 6b8:	0f 92       	push	r0
 6ba:	0f b6       	in	r0, 0x3f	; 63
 6bc:	0f 92       	push	r0
 6be:	11 24       	eor	r1, r1
 6c0:	8f 93       	push	r24
 6c2:	9f 93       	push	r25
 6c4:	ef 93       	push	r30
 6c6:	ff 93       	push	r31
	bufferU0[writePointerU0] = UDR0;
 6c8:	80 91 10 01 	lds	r24, 0x0110	; 0x800110 <writePointerU0>
 6cc:	90 91 c6 00 	lds	r25, 0x00C6	; 0x8000c6 <__TEXT_REGION_LENGTH__+0x7e00c6>
 6d0:	e8 2f       	mov	r30, r24
 6d2:	f0 e0       	ldi	r31, 0x00	; 0
 6d4:	ee 55       	subi	r30, 0x5E	; 94
 6d6:	fe 4f       	sbci	r31, 0xFE	; 254
 6d8:	90 83       	st	Z, r25
	
	state = BUSSYSTEM;	/* change state / start evaluation */
 6da:	91 e0       	ldi	r25, 0x01	; 1
 6dc:	90 93 11 01 	sts	0x0111, r25	; 0x800111 <state>

	if (writePointerU0 >= (BUFFERSIZE - 1))
 6e0:	83 36       	cpi	r24, 0x63	; 99
 6e2:	18 f0       	brcs	.+6      	; 0x6ea <__vector_18+0x34>
		writePointerU0 = 0;
 6e4:	10 92 10 01 	sts	0x0110, r1	; 0x800110 <writePointerU0>
 6e8:	03 c0       	rjmp	.+6      	; 0x6f0 <__vector_18+0x3a>
	else writePointerU0++;
 6ea:	8f 5f       	subi	r24, 0xFF	; 255
 6ec:	80 93 10 01 	sts	0x0110, r24	; 0x800110 <writePointerU0>
}
 6f0:	ff 91       	pop	r31
 6f2:	ef 91       	pop	r30
 6f4:	9f 91       	pop	r25
 6f6:	8f 91       	pop	r24
 6f8:	0f 90       	pop	r0
 6fa:	0f be       	out	0x3f, r0	; 63
 6fc:	0f 90       	pop	r0
 6fe:	1f 90       	pop	r1
 700:	18 95       	reti

00000702 <__vector_28>:

ISR(USART1_RX_vect)
{
 702:	1f 92       	push	r1
 704:	0f 92       	push	r0
 706:	0f b6       	in	r0, 0x3f	; 63
 708:	0f 92       	push	r0
 70a:	11 24       	eor	r1, r1
 70c:	8f 93       	push	r24
 70e:	9f 93       	push	r25
 710:	ef 93       	push	r30
 712:	ff 93       	push	r31
	bufferU1[writePointerU1] = UDR1;
 714:	80 91 0e 01 	lds	r24, 0x010E	; 0x80010e <writePointerU1>
 718:	90 91 ce 00 	lds	r25, 0x00CE	; 0x8000ce <__TEXT_REGION_LENGTH__+0x7e00ce>
 71c:	e8 2f       	mov	r30, r24
 71e:	f0 e0       	ldi	r31, 0x00	; 0
 720:	e3 5c       	subi	r30, 0xC3	; 195
 722:	fe 4f       	sbci	r31, 0xFE	; 254
 724:	90 83       	st	Z, r25
	state = BUSSYSTEM;	/* change state / start evaluation */
 726:	91 e0       	ldi	r25, 0x01	; 1
 728:	90 93 11 01 	sts	0x0111, r25	; 0x800111 <state>

	if(writePointerU1 >= (BUFFERSIZE - 1))
 72c:	83 36       	cpi	r24, 0x63	; 99
 72e:	18 f0       	brcs	.+6      	; 0x736 <__vector_28+0x34>
		writePointerU1 = 0;
 730:	10 92 0e 01 	sts	0x010E, r1	; 0x80010e <writePointerU1>
 734:	03 c0       	rjmp	.+6      	; 0x73c <__vector_28+0x3a>
	else writePointerU1++;
 736:	8f 5f       	subi	r24, 0xFF	; 255
 738:	80 93 0e 01 	sts	0x010E, r24	; 0x80010e <writePointerU1>
}
 73c:	ff 91       	pop	r31
 73e:	ef 91       	pop	r30
 740:	9f 91       	pop	r25
 742:	8f 91       	pop	r24
 744:	0f 90       	pop	r0
 746:	0f be       	out	0x3f, r0	; 63
 748:	0f 90       	pop	r0
 74a:	1f 90       	pop	r1
 74c:	18 95       	reti

0000074e <main>:

////////////////////////////////////////////////////////////////////////// main

int main(void)
{
	bounds[0] = 1880;
 74e:	ef e2       	ldi	r30, 0x2F	; 47
 750:	f1 e0       	ldi	r31, 0x01	; 1
 752:	88 e5       	ldi	r24, 0x58	; 88
 754:	97 e0       	ldi	r25, 0x07	; 7
 756:	91 83       	std	Z+1, r25	; 0x01
 758:	80 83       	st	Z, r24
	bounds[1] = 4760;
 75a:	88 e9       	ldi	r24, 0x98	; 152
 75c:	92 e1       	ldi	r25, 0x12	; 18
 75e:	93 83       	std	Z+3, r25	; 0x03
 760:	82 83       	std	Z+2, r24	; 0x02
	bounds[2] = 7640;
 762:	88 ed       	ldi	r24, 0xD8	; 216
 764:	9d e1       	ldi	r25, 0x1D	; 29
 766:	95 83       	std	Z+5, r25	; 0x05
 768:	84 83       	std	Z+4, r24	; 0x04
	bounds[3] = 10520;
 76a:	88 e1       	ldi	r24, 0x18	; 24
 76c:	99 e2       	ldi	r25, 0x29	; 41
 76e:	97 83       	std	Z+7, r25	; 0x07
 770:	86 83       	std	Z+6, r24	; 0x06
	bounds[4] = 13400;
 772:	88 e5       	ldi	r24, 0x58	; 88
 774:	94 e3       	ldi	r25, 0x34	; 52
 776:	91 87       	std	Z+9, r25	; 0x09
 778:	80 87       	std	Z+8, r24	; 0x08
	bounds[5] = 16000;
 77a:	80 e8       	ldi	r24, 0x80	; 128
 77c:	9e e3       	ldi	r25, 0x3E	; 62
 77e:	93 87       	std	Z+11, r25	; 0x0b
 780:	82 87       	std	Z+10, r24	; 0x0a
	bounds[6] = 22000;
 782:	80 ef       	ldi	r24, 0xF0	; 240
 784:	95 e5       	ldi	r25, 0x55	; 85
 786:	95 87       	std	Z+13, r25	; 0x0d
 788:	84 87       	std	Z+12, r24	; 0x0c

	
	hal_init();
 78a:	0e 94 12 01 	call	0x224	; 0x224 <hal_init>
	measurement_init();
 78e:	0e 94 e6 03 	call	0x7cc	; 0x7cc <measurement_init>
	lightcontrol_init();
 792:	0e 94 2d 02 	call	0x45a	; 0x45a <lightcontrol_init>
    /* initialize main features */
	sei();
 796:	78 94       	sei
	/* initialize UART interfaces */
	
	//could be put into hal_init() @joshua from patrick ?
	USART0_init();
 798:	0e 94 e3 00 	call	0x1c6	; 0x1c6 <USART0_init>
	USART1_init();
 79c:	0e 94 fb 00 	call	0x1f6	; 0x1f6 <USART1_init>

	USART0_setToReceive();
 7a0:	0e 94 ef 00 	call	0x1de	; 0x1de <USART0_setToReceive>
	USART1_setToTransmit();
 7a4:	0e 94 07 01 	call	0x20e	; 0x20e <USART1_setToTransmit>
	
	lightmode = 0x01;
 7a8:	81 e0       	ldi	r24, 0x01	; 1
 7aa:	80 93 09 02 	sts	0x0209, r24	; 0x800209 <lightmode>
	brightness = 50;
 7ae:	82 e3       	ldi	r24, 0x32	; 50
 7b0:	80 93 08 02 	sts	0x0208, r24	; 0x800208 <brightness>
	
	/* initialize main features */
	hal_init();
 7b4:	0e 94 12 01 	call	0x224	; 0x224 <hal_init>
	measurement_init();
 7b8:	0e 94 e6 03 	call	0x7cc	; 0x7cc <measurement_init>
	lightcontrol_init();
 7bc:	0e 94 2d 02 	call	0x45a	; 0x45a <lightcontrol_init>
	sei();
 7c0:	78 94       	sei

    while (1) 
    {
		hal_process();
 7c2:	0e 94 8a 00 	call	0x114	; 0x114 <hal_process>
		stateMachine();
 7c6:	0e 94 47 03 	call	0x68e	; 0x68e <stateMachine>
		
    }
 7ca:	fb cf       	rjmp	.-10     	; 0x7c2 <main+0x74>

000007cc <measurement_init>:
uint8_t meascount;
timer_var_t meas_timer;

void measurement_init(void)
{
	state = WAIT;
 7cc:	82 e0       	ldi	r24, 0x02	; 2
 7ce:	80 93 12 01 	sts	0x0112, r24	; 0x800112 <state>
	
	meas_timer = TIMER_SEC(1);
 7d2:	80 e4       	ldi	r24, 0x40	; 64
 7d4:	92 e4       	ldi	r25, 0x42	; 66
 7d6:	af e0       	ldi	r26, 0x0F	; 15
 7d8:	b0 e0       	ldi	r27, 0x00	; 0
 7da:	80 93 0c 02 	sts	0x020C, r24	; 0x80020c <meas_timer>
 7de:	90 93 0d 02 	sts	0x020D, r25	; 0x80020d <meas_timer+0x1>
 7e2:	a0 93 0e 02 	sts	0x020E, r26	; 0x80020e <meas_timer+0x2>
 7e6:	b0 93 0f 02 	sts	0x020F, r27	; 0x80020f <meas_timer+0x3>
	
	measurement_hal_init();
 7ea:	0e 94 c9 04 	call	0x992	; 0x992 <measurement_hal_init>
 7ee:	08 95       	ret

000007f0 <measurement_process>:
}

void measurement_process(void)
{
 7f0:	ef 92       	push	r14
 7f2:	ff 92       	push	r15
 7f4:	0f 93       	push	r16
 7f6:	1f 93       	push	r17
 7f8:	cf 93       	push	r28
 7fa:	df 93       	push	r29
	if (!measLED_valid)
 7fc:	80 91 2c 01 	lds	r24, 0x012C	; 0x80012c <measLED_valid>
 800:	81 11       	cpse	r24, r1
 802:	10 c0       	rjmp	.+32     	; 0x824 <measurement_process+0x34>
	{
		meas_timer = TIMER_SEC(1);
 804:	80 e4       	ldi	r24, 0x40	; 64
 806:	92 e4       	ldi	r25, 0x42	; 66
 808:	af e0       	ldi	r26, 0x0F	; 15
 80a:	b0 e0       	ldi	r27, 0x00	; 0
 80c:	80 93 0c 02 	sts	0x020C, r24	; 0x80020c <meas_timer>
 810:	90 93 0d 02 	sts	0x020D, r25	; 0x80020d <meas_timer+0x1>
 814:	a0 93 0e 02 	sts	0x020E, r26	; 0x80020e <meas_timer+0x2>
 818:	b0 93 0f 02 	sts	0x020F, r27	; 0x80020f <meas_timer+0x3>
		state = WAIT;
 81c:	82 e0       	ldi	r24, 0x02	; 2
 81e:	80 93 12 01 	sts	0x0112, r24	; 0x800112 <state>
 822:	a1 c0       	rjmp	.+322    	; 0x966 <__stack+0x67>
	}
	
	switch(state)
 824:	80 91 12 01 	lds	r24, 0x0112	; 0x800112 <state>
 828:	81 30       	cpi	r24, 0x01	; 1
 82a:	09 f4       	brne	.+2      	; 0x82e <measurement_process+0x3e>
 82c:	53 c0       	rjmp	.+166    	; 0x8d4 <measurement_process+0xe4>
 82e:	20 f0       	brcs	.+8      	; 0x838 <measurement_process+0x48>
 830:	82 30       	cpi	r24, 0x02	; 2
 832:	09 f0       	breq	.+2      	; 0x836 <measurement_process+0x46>
 834:	a7 c0       	rjmp	.+334    	; 0x984 <__stack+0x85>
 836:	97 c0       	rjmp	.+302    	; 0x966 <__stack+0x67>
	{
		case MEAS_ADV:		//State MEAS_ADV
			
			get_ambient_TEMP();
 838:	0e 94 f1 04 	call	0x9e2	; 0x9e2 <get_ambient_TEMP>
			get_sensor_value(0);			
 83c:	80 e0       	ldi	r24, 0x00	; 0
 83e:	0e 94 da 05 	call	0xbb4	; 0xbb4 <get_sensor_value>
			get_all_voltages();
 842:	0e 94 f8 04 	call	0x9f0	; 0x9f0 <get_all_voltages>
			get_all_div_voltages();
 846:	0e 94 6b 05 	call	0xad6	; 0xad6 <get_all_div_voltages>
			
			nLED = 0;
			
			for (uint8_t i = 0; i<4; i++)
			{
				if (voltageDiv[i] < bounds[6])
 84a:	00 91 3b 01 	lds	r16, 0x013B	; 0x80013b <bounds+0xc>
 84e:	10 91 3c 01 	lds	r17, 0x013C	; 0x80013c <bounds+0xd>
 852:	a4 e2       	ldi	r26, 0x24	; 36
 854:	b1 e0       	ldi	r27, 0x01	; 1
 856:	cc e2       	ldi	r28, 0x2C	; 44
 858:	d1 e0       	ldi	r29, 0x01	; 1
 85a:	40 e0       	ldi	r20, 0x00	; 0
 85c:	0f 2e       	mov	r0, r31
 85e:	ff e2       	ldi	r31, 0x2F	; 47
 860:	ef 2e       	mov	r14, r31
 862:	f1 e0       	ldi	r31, 0x01	; 1
 864:	ff 2e       	mov	r15, r31
 866:	f0 2d       	mov	r31, r0
 868:	6b e3       	ldi	r22, 0x3B	; 59
 86a:	71 e0       	ldi	r23, 0x01	; 1
 86c:	2d 91       	ld	r18, X+
 86e:	3d 91       	ld	r19, X+
 870:	20 17       	cp	r18, r16
 872:	31 07       	cpc	r19, r17
 874:	50 f4       	brcc	.+20     	; 0x88a <measurement_process+0x9a>
 876:	f7 01       	movw	r30, r14
				{
					for (uint8_t ii = 0; ii<6; ii++)
					{
						if (voltageDiv[i] > bounds[ii])
 878:	81 91       	ld	r24, Z+
 87a:	91 91       	ld	r25, Z+
 87c:	82 17       	cp	r24, r18
 87e:	93 07       	cpc	r25, r19
 880:	08 f4       	brcc	.+2      	; 0x884 <measurement_process+0x94>
						{
							nLED++;
 882:	4f 5f       	subi	r20, 0xFF	; 255
			
			for (uint8_t i = 0; i<4; i++)
			{
				if (voltageDiv[i] < bounds[6])
				{
					for (uint8_t ii = 0; ii<6; ii++)
 884:	e6 17       	cp	r30, r22
 886:	f7 07       	cpc	r31, r23
 888:	b9 f7       	brne	.-18     	; 0x878 <measurement_process+0x88>
			get_all_voltages();
			get_all_div_voltages();
			
			nLED = 0;
			
			for (uint8_t i = 0; i<4; i++)
 88a:	ac 17       	cp	r26, r28
 88c:	bd 07       	cpc	r27, r29
 88e:	71 f7       	brne	.-36     	; 0x86c <measurement_process+0x7c>
 890:	40 93 0a 02 	sts	0x020A, r20	; 0x80020a <nLED>
						}
					}
				}
			}
			
			if (nLED > 12)
 894:	4d 30       	cpi	r20, 0x0D	; 13
 896:	20 f0       	brcs	.+8      	; 0x8a0 <measurement_process+0xb0>
			{
				statusCode = 0x07;
 898:	87 e0       	ldi	r24, 0x07	; 7
 89a:	80 93 a1 01 	sts	0x01A1, r24	; 0x8001a1 <statusCode>
 89e:	02 c0       	rjmp	.+4      	; 0x8a4 <measurement_process+0xb4>
			}
			else
			{
				statusCode = 0x00;
 8a0:	10 92 a1 01 	sts	0x01A1, r1	; 0x8001a1 <statusCode>
			}
			
			statusCode |= (nLED << 3);
 8a4:	44 0f       	add	r20, r20
 8a6:	44 0f       	add	r20, r20
 8a8:	44 0f       	add	r20, r20
 8aa:	80 91 a1 01 	lds	r24, 0x01A1	; 0x8001a1 <statusCode>
 8ae:	48 2b       	or	r20, r24
 8b0:	40 93 a1 01 	sts	0x01A1, r20	; 0x8001a1 <statusCode>
			state = WAIT;
 8b4:	82 e0       	ldi	r24, 0x02	; 2
 8b6:	80 93 12 01 	sts	0x0112, r24	; 0x800112 <state>
			meas_timer = TIMER_SEC(3);
 8ba:	80 ec       	ldi	r24, 0xC0	; 192
 8bc:	96 ec       	ldi	r25, 0xC6	; 198
 8be:	ad e2       	ldi	r26, 0x2D	; 45
 8c0:	b0 e0       	ldi	r27, 0x00	; 0
 8c2:	80 93 0c 02 	sts	0x020C, r24	; 0x80020c <meas_timer>
 8c6:	90 93 0d 02 	sts	0x020D, r25	; 0x80020d <meas_timer+0x1>
 8ca:	a0 93 0e 02 	sts	0x020E, r26	; 0x80020e <meas_timer+0x2>
 8ce:	b0 93 0f 02 	sts	0x020F, r27	; 0x80020f <meas_timer+0x3>
						
		break;
 8d2:	58 c0       	rjmp	.+176    	; 0x984 <__stack+0x85>
		
		case MEAS_SIMP:		//STATE MEAS_SIMP
			
			
			get_ambient_TEMP();
 8d4:	0e 94 f1 04 	call	0x9e2	; 0x9e2 <get_ambient_TEMP>
			get_all_div_voltages();
 8d8:	0e 94 6b 05 	call	0xad6	; 0xad6 <get_all_div_voltages>
			
			for (uint8_t i = 0; i<4; i++)
			{
				//USART1_sendChar((char)(voltageDiv[i]>>8));
				//USART1_sendChar((char)(voltageDiv[i]));
				if (voltageDiv[i] < bounds[6])
 8dc:	00 91 3b 01 	lds	r16, 0x013B	; 0x80013b <bounds+0xc>
 8e0:	10 91 3c 01 	lds	r17, 0x013C	; 0x80013c <bounds+0xd>
 8e4:	a4 e2       	ldi	r26, 0x24	; 36
 8e6:	b1 e0       	ldi	r27, 0x01	; 1
 8e8:	cc e2       	ldi	r28, 0x2C	; 44
 8ea:	d1 e0       	ldi	r29, 0x01	; 1
 8ec:	40 e0       	ldi	r20, 0x00	; 0
 8ee:	0f 2e       	mov	r0, r31
 8f0:	ff e2       	ldi	r31, 0x2F	; 47
 8f2:	ef 2e       	mov	r14, r31
 8f4:	f1 e0       	ldi	r31, 0x01	; 1
 8f6:	ff 2e       	mov	r15, r31
 8f8:	f0 2d       	mov	r31, r0
 8fa:	6b e3       	ldi	r22, 0x3B	; 59
 8fc:	71 e0       	ldi	r23, 0x01	; 1
 8fe:	2d 91       	ld	r18, X+
 900:	3d 91       	ld	r19, X+
 902:	20 17       	cp	r18, r16
 904:	31 07       	cpc	r19, r17
 906:	50 f4       	brcc	.+20     	; 0x91c <__stack+0x1d>
 908:	f7 01       	movw	r30, r14
				{
					for (uint8_t ii = 0; ii<6; ii++)
					{
						if (voltageDiv[i] >= bounds[ii])
 90a:	81 91       	ld	r24, Z+
 90c:	91 91       	ld	r25, Z+
 90e:	28 17       	cp	r18, r24
 910:	39 07       	cpc	r19, r25
 912:	08 f0       	brcs	.+2      	; 0x916 <__stack+0x17>
						{
							nLED++;							
 914:	4f 5f       	subi	r20, 0xFF	; 255
			{
				//USART1_sendChar((char)(voltageDiv[i]>>8));
				//USART1_sendChar((char)(voltageDiv[i]));
				if (voltageDiv[i] < bounds[6])
				{
					for (uint8_t ii = 0; ii<6; ii++)
 916:	e6 17       	cp	r30, r22
 918:	f7 07       	cpc	r31, r23
 91a:	b9 f7       	brne	.-18     	; 0x90a <__stack+0xb>
			get_ambient_TEMP();
			get_all_div_voltages();
			
			nLED=0;
			
			for (uint8_t i = 0; i<4; i++)
 91c:	ac 17       	cp	r26, r28
 91e:	bd 07       	cpc	r27, r29
 920:	71 f7       	brne	.-36     	; 0x8fe <measurement_process+0x10e>
 922:	40 93 0a 02 	sts	0x020A, r20	; 0x80020a <nLED>
					}
				}
			}
			
			
			if (nLED > 12)
 926:	4d 30       	cpi	r20, 0x0D	; 13
 928:	20 f0       	brcs	.+8      	; 0x932 <__stack+0x33>
			{
				statusCode = 0x07;
 92a:	87 e0       	ldi	r24, 0x07	; 7
 92c:	80 93 a1 01 	sts	0x01A1, r24	; 0x8001a1 <statusCode>
 930:	02 c0       	rjmp	.+4      	; 0x936 <__stack+0x37>
			}
			else
			{
				statusCode = 0x00;	
 932:	10 92 a1 01 	sts	0x01A1, r1	; 0x8001a1 <statusCode>
			}
		
			statusCode |= (nLED << 3);
 936:	44 0f       	add	r20, r20
 938:	44 0f       	add	r20, r20
 93a:	44 0f       	add	r20, r20
 93c:	80 91 a1 01 	lds	r24, 0x01A1	; 0x8001a1 <statusCode>
 940:	48 2b       	or	r20, r24
 942:	40 93 a1 01 	sts	0x01A1, r20	; 0x8001a1 <statusCode>
			state = WAIT;
 946:	82 e0       	ldi	r24, 0x02	; 2
 948:	80 93 12 01 	sts	0x0112, r24	; 0x800112 <state>
			meas_timer = TIMER_SEC(1);
 94c:	80 e4       	ldi	r24, 0x40	; 64
 94e:	92 e4       	ldi	r25, 0x42	; 66
 950:	af e0       	ldi	r26, 0x0F	; 15
 952:	b0 e0       	ldi	r27, 0x00	; 0
 954:	80 93 0c 02 	sts	0x020C, r24	; 0x80020c <meas_timer>
 958:	90 93 0d 02 	sts	0x020D, r25	; 0x80020d <meas_timer+0x1>
 95c:	a0 93 0e 02 	sts	0x020E, r26	; 0x80020e <meas_timer+0x2>
 960:	b0 93 0f 02 	sts	0x020F, r27	; 0x80020f <meas_timer+0x3>
			
			
		break;
 964:	0f c0       	rjmp	.+30     	; 0x984 <__stack+0x85>
		
		case WAIT:			//STATE WAIT
		
			if (meas_timer == 0)
 966:	80 91 0c 02 	lds	r24, 0x020C	; 0x80020c <meas_timer>
 96a:	90 91 0d 02 	lds	r25, 0x020D	; 0x80020d <meas_timer+0x1>
 96e:	a0 91 0e 02 	lds	r26, 0x020E	; 0x80020e <meas_timer+0x2>
 972:	b0 91 0f 02 	lds	r27, 0x020F	; 0x80020f <meas_timer+0x3>
 976:	89 2b       	or	r24, r25
 978:	8a 2b       	or	r24, r26
 97a:	8b 2b       	or	r24, r27
 97c:	19 f4       	brne	.+6      	; 0x984 <__stack+0x85>
			{
				state = MEAS_SIMP;
 97e:	81 e0       	ldi	r24, 0x01	; 1
 980:	80 93 12 01 	sts	0x0112, r24	; 0x800112 <state>

		break;
		
	}

 984:	df 91       	pop	r29
 986:	cf 91       	pop	r28
 988:	1f 91       	pop	r17
 98a:	0f 91       	pop	r16
 98c:	ff 90       	pop	r15
 98e:	ef 90       	pop	r14
 990:	08 95       	ret

00000992 <measurement_hal_init>:
{
	uint16_t temp = 0;
	// not evalluated
	temp = read_adc_10(0x08);
	return temp;
}
 992:	0e 94 4d 01 	call	0x29a	; 0x29a <TWI1_init>
 996:	0e 94 b1 01 	call	0x362	; 0x362 <DS1621_init>
 99a:	08 95       	ret

0000099c <read_adc_10>:
 99c:	8f 70       	andi	r24, 0x0F	; 15
 99e:	80 6c       	ori	r24, 0xC0	; 192
 9a0:	80 93 7c 00 	sts	0x007C, r24	; 0x80007c <__TEXT_REGION_LENGTH__+0x7e007c>
 9a4:	86 e8       	ldi	r24, 0x86	; 134
 9a6:	80 93 7a 00 	sts	0x007A, r24	; 0x80007a <__TEXT_REGION_LENGTH__+0x7e007a>
 9aa:	24 e0       	ldi	r18, 0x04	; 4
 9ac:	30 e0       	ldi	r19, 0x00	; 0
 9ae:	40 e0       	ldi	r20, 0x00	; 0
 9b0:	50 e0       	ldi	r21, 0x00	; 0
 9b2:	ea e7       	ldi	r30, 0x7A	; 122
 9b4:	f0 e0       	ldi	r31, 0x00	; 0
 9b6:	a8 e7       	ldi	r26, 0x78	; 120
 9b8:	b0 e0       	ldi	r27, 0x00	; 0
 9ba:	90 81       	ld	r25, Z
 9bc:	90 64       	ori	r25, 0x40	; 64
 9be:	90 83       	st	Z, r25
 9c0:	90 81       	ld	r25, Z
 9c2:	94 ff       	sbrs	r25, 4
 9c4:	fd cf       	rjmp	.-6      	; 0x9c0 <read_adc_10+0x24>
 9c6:	8d 91       	ld	r24, X+
 9c8:	9c 91       	ld	r25, X
 9ca:	11 97       	sbiw	r26, 0x01	; 1
 9cc:	48 0f       	add	r20, r24
 9ce:	59 1f       	adc	r21, r25
 9d0:	21 50       	subi	r18, 0x01	; 1
 9d2:	31 09       	sbc	r19, r1
 9d4:	91 f7       	brne	.-28     	; 0x9ba <read_adc_10+0x1e>
 9d6:	ca 01       	movw	r24, r20
 9d8:	96 95       	lsr	r25
 9da:	87 95       	ror	r24
 9dc:	96 95       	lsr	r25
 9de:	87 95       	ror	r24
 9e0:	08 95       	ret

000009e2 <get_ambient_TEMP>:

void get_ambient_TEMP(void)
{
	temperature = read_DS1621();
 9e2:	0e 94 e9 01 	call	0x3d2	; 0x3d2 <read_DS1621>
 9e6:	90 93 2e 01 	sts	0x012E, r25	; 0x80012e <temperature+0x1>
 9ea:	80 93 2d 01 	sts	0x012D, r24	; 0x80012d <temperature>
 9ee:	08 95       	ret

000009f0 <get_all_voltages>:
}

void get_all_voltages(void)
{
 9f0:	cf 93       	push	r28
 9f2:	df 93       	push	r29
	voltages[0] = read_adc_10(0x00) *25.741;
 9f4:	80 e0       	ldi	r24, 0x00	; 0
 9f6:	0e 94 ce 04 	call	0x99c	; 0x99c <read_adc_10>
 9fa:	c8 e1       	ldi	r28, 0x18	; 24
 9fc:	d1 e0       	ldi	r29, 0x01	; 1
 9fe:	bc 01       	movw	r22, r24
 a00:	80 e0       	ldi	r24, 0x00	; 0
 a02:	90 e0       	ldi	r25, 0x00	; 0
 a04:	0e 94 f7 06 	call	0xdee	; 0xdee <__floatunsisf>
 a08:	21 e9       	ldi	r18, 0x91	; 145
 a0a:	3d ee       	ldi	r19, 0xED	; 237
 a0c:	4d ec       	ldi	r20, 0xCD	; 205
 a0e:	51 e4       	ldi	r21, 0x41	; 65
 a10:	0e 94 5d 07 	call	0xeba	; 0xeba <__mulsf3>
 a14:	0e 94 c8 06 	call	0xd90	; 0xd90 <__fixunssfsi>
 a18:	79 83       	std	Y+1, r23	; 0x01
 a1a:	68 83       	st	Y, r22
	voltages[1] = read_adc_10(0x01) *25.741;
 a1c:	81 e0       	ldi	r24, 0x01	; 1
 a1e:	0e 94 ce 04 	call	0x99c	; 0x99c <read_adc_10>
 a22:	bc 01       	movw	r22, r24
 a24:	80 e0       	ldi	r24, 0x00	; 0
 a26:	90 e0       	ldi	r25, 0x00	; 0
 a28:	0e 94 f7 06 	call	0xdee	; 0xdee <__floatunsisf>
 a2c:	21 e9       	ldi	r18, 0x91	; 145
 a2e:	3d ee       	ldi	r19, 0xED	; 237
 a30:	4d ec       	ldi	r20, 0xCD	; 205
 a32:	51 e4       	ldi	r21, 0x41	; 65
 a34:	0e 94 5d 07 	call	0xeba	; 0xeba <__mulsf3>
 a38:	0e 94 c8 06 	call	0xd90	; 0xd90 <__fixunssfsi>
 a3c:	7b 83       	std	Y+3, r23	; 0x03
 a3e:	6a 83       	std	Y+2, r22	; 0x02
	voltages[2] = read_adc_10(0x02) *25.741;
 a40:	82 e0       	ldi	r24, 0x02	; 2
 a42:	0e 94 ce 04 	call	0x99c	; 0x99c <read_adc_10>
 a46:	bc 01       	movw	r22, r24
 a48:	80 e0       	ldi	r24, 0x00	; 0
 a4a:	90 e0       	ldi	r25, 0x00	; 0
 a4c:	0e 94 f7 06 	call	0xdee	; 0xdee <__floatunsisf>
 a50:	21 e9       	ldi	r18, 0x91	; 145
 a52:	3d ee       	ldi	r19, 0xED	; 237
 a54:	4d ec       	ldi	r20, 0xCD	; 205
 a56:	51 e4       	ldi	r21, 0x41	; 65
 a58:	0e 94 5d 07 	call	0xeba	; 0xeba <__mulsf3>
 a5c:	0e 94 c8 06 	call	0xd90	; 0xd90 <__fixunssfsi>
 a60:	7d 83       	std	Y+5, r23	; 0x05
 a62:	6c 83       	std	Y+4, r22	; 0x04
	voltages[3] = read_adc_10(0x03) *25.741;
 a64:	83 e0       	ldi	r24, 0x03	; 3
 a66:	0e 94 ce 04 	call	0x99c	; 0x99c <read_adc_10>
 a6a:	bc 01       	movw	r22, r24
 a6c:	80 e0       	ldi	r24, 0x00	; 0
 a6e:	90 e0       	ldi	r25, 0x00	; 0
 a70:	0e 94 f7 06 	call	0xdee	; 0xdee <__floatunsisf>
 a74:	21 e9       	ldi	r18, 0x91	; 145
 a76:	3d ee       	ldi	r19, 0xED	; 237
 a78:	4d ec       	ldi	r20, 0xCD	; 205
 a7a:	51 e4       	ldi	r21, 0x41	; 65
 a7c:	0e 94 5d 07 	call	0xeba	; 0xeba <__mulsf3>
 a80:	0e 94 c8 06 	call	0xd90	; 0xd90 <__fixunssfsi>
 a84:	7f 83       	std	Y+7, r23	; 0x07
 a86:	6e 83       	std	Y+6, r22	; 0x06
	voltages[4] = read_adc_10(0x04) *25.741;
 a88:	84 e0       	ldi	r24, 0x04	; 4
 a8a:	0e 94 ce 04 	call	0x99c	; 0x99c <read_adc_10>
 a8e:	bc 01       	movw	r22, r24
 a90:	80 e0       	ldi	r24, 0x00	; 0
 a92:	90 e0       	ldi	r25, 0x00	; 0
 a94:	0e 94 f7 06 	call	0xdee	; 0xdee <__floatunsisf>
 a98:	21 e9       	ldi	r18, 0x91	; 145
 a9a:	3d ee       	ldi	r19, 0xED	; 237
 a9c:	4d ec       	ldi	r20, 0xCD	; 205
 a9e:	51 e4       	ldi	r21, 0x41	; 65
 aa0:	0e 94 5d 07 	call	0xeba	; 0xeba <__mulsf3>
 aa4:	0e 94 c8 06 	call	0xd90	; 0xd90 <__fixunssfsi>
 aa8:	79 87       	std	Y+9, r23	; 0x09
 aaa:	68 87       	std	Y+8, r22	; 0x08
	voltages[5] = read_adc_10(0x05) *25.741;
 aac:	85 e0       	ldi	r24, 0x05	; 5
 aae:	0e 94 ce 04 	call	0x99c	; 0x99c <read_adc_10>
 ab2:	bc 01       	movw	r22, r24
 ab4:	80 e0       	ldi	r24, 0x00	; 0
 ab6:	90 e0       	ldi	r25, 0x00	; 0
 ab8:	0e 94 f7 06 	call	0xdee	; 0xdee <__floatunsisf>
 abc:	21 e9       	ldi	r18, 0x91	; 145
 abe:	3d ee       	ldi	r19, 0xED	; 237
 ac0:	4d ec       	ldi	r20, 0xCD	; 205
 ac2:	51 e4       	ldi	r21, 0x41	; 65
 ac4:	0e 94 5d 07 	call	0xeba	; 0xeba <__mulsf3>
 ac8:	0e 94 c8 06 	call	0xd90	; 0xd90 <__fixunssfsi>
 acc:	7b 87       	std	Y+11, r23	; 0x0b
 ace:	6a 87       	std	Y+10, r22	; 0x0a
}
 ad0:	df 91       	pop	r29
 ad2:	cf 91       	pop	r28
 ad4:	08 95       	ret

00000ad6 <get_all_div_voltages>:

void get_all_div_voltages(void)
{
 ad6:	0f 93       	push	r16
 ad8:	1f 93       	push	r17
 ada:	cf 93       	push	r28
 adc:	df 93       	push	r29
	voltageDiv[0] = (read_adc_10(0x04) - read_adc_10(0x00)) *25.741;
 ade:	84 e0       	ldi	r24, 0x04	; 4
 ae0:	0e 94 ce 04 	call	0x99c	; 0x99c <read_adc_10>
 ae4:	ec 01       	movw	r28, r24
 ae6:	80 e0       	ldi	r24, 0x00	; 0
 ae8:	0e 94 ce 04 	call	0x99c	; 0x99c <read_adc_10>
 aec:	04 e2       	ldi	r16, 0x24	; 36
 aee:	11 e0       	ldi	r17, 0x01	; 1
 af0:	be 01       	movw	r22, r28
 af2:	68 1b       	sub	r22, r24
 af4:	79 0b       	sbc	r23, r25
 af6:	80 e0       	ldi	r24, 0x00	; 0
 af8:	90 e0       	ldi	r25, 0x00	; 0
 afa:	0e 94 f7 06 	call	0xdee	; 0xdee <__floatunsisf>
 afe:	21 e9       	ldi	r18, 0x91	; 145
 b00:	3d ee       	ldi	r19, 0xED	; 237
 b02:	4d ec       	ldi	r20, 0xCD	; 205
 b04:	51 e4       	ldi	r21, 0x41	; 65
 b06:	0e 94 5d 07 	call	0xeba	; 0xeba <__mulsf3>
 b0a:	0e 94 c8 06 	call	0xd90	; 0xd90 <__fixunssfsi>
 b0e:	f8 01       	movw	r30, r16
 b10:	71 83       	std	Z+1, r23	; 0x01
 b12:	60 83       	st	Z, r22
	voltageDiv[1] = (read_adc_10(0x05) - read_adc_10(0x01)) *25.741;
 b14:	85 e0       	ldi	r24, 0x05	; 5
 b16:	0e 94 ce 04 	call	0x99c	; 0x99c <read_adc_10>
 b1a:	ec 01       	movw	r28, r24
 b1c:	81 e0       	ldi	r24, 0x01	; 1
 b1e:	0e 94 ce 04 	call	0x99c	; 0x99c <read_adc_10>
 b22:	be 01       	movw	r22, r28
 b24:	68 1b       	sub	r22, r24
 b26:	79 0b       	sbc	r23, r25
 b28:	80 e0       	ldi	r24, 0x00	; 0
 b2a:	90 e0       	ldi	r25, 0x00	; 0
 b2c:	0e 94 f7 06 	call	0xdee	; 0xdee <__floatunsisf>
 b30:	21 e9       	ldi	r18, 0x91	; 145
 b32:	3d ee       	ldi	r19, 0xED	; 237
 b34:	4d ec       	ldi	r20, 0xCD	; 205
 b36:	51 e4       	ldi	r21, 0x41	; 65
 b38:	0e 94 5d 07 	call	0xeba	; 0xeba <__mulsf3>
 b3c:	0e 94 c8 06 	call	0xd90	; 0xd90 <__fixunssfsi>
 b40:	f8 01       	movw	r30, r16
 b42:	73 83       	std	Z+3, r23	; 0x03
 b44:	62 83       	std	Z+2, r22	; 0x02
	voltageDiv[2] = (read_adc_10(0x04) - read_adc_10(0x02)) *25.741;
 b46:	84 e0       	ldi	r24, 0x04	; 4
 b48:	0e 94 ce 04 	call	0x99c	; 0x99c <read_adc_10>
 b4c:	ec 01       	movw	r28, r24
 b4e:	82 e0       	ldi	r24, 0x02	; 2
 b50:	0e 94 ce 04 	call	0x99c	; 0x99c <read_adc_10>
 b54:	be 01       	movw	r22, r28
 b56:	68 1b       	sub	r22, r24
 b58:	79 0b       	sbc	r23, r25
 b5a:	80 e0       	ldi	r24, 0x00	; 0
 b5c:	90 e0       	ldi	r25, 0x00	; 0
 b5e:	0e 94 f7 06 	call	0xdee	; 0xdee <__floatunsisf>
 b62:	21 e9       	ldi	r18, 0x91	; 145
 b64:	3d ee       	ldi	r19, 0xED	; 237
 b66:	4d ec       	ldi	r20, 0xCD	; 205
 b68:	51 e4       	ldi	r21, 0x41	; 65
 b6a:	0e 94 5d 07 	call	0xeba	; 0xeba <__mulsf3>
 b6e:	0e 94 c8 06 	call	0xd90	; 0xd90 <__fixunssfsi>
 b72:	f8 01       	movw	r30, r16
 b74:	75 83       	std	Z+5, r23	; 0x05
 b76:	64 83       	std	Z+4, r22	; 0x04
	voltageDiv[3] = (read_adc_10(0x05) - read_adc_10(0x03)) *25.741;
 b78:	85 e0       	ldi	r24, 0x05	; 5
 b7a:	0e 94 ce 04 	call	0x99c	; 0x99c <read_adc_10>
 b7e:	ec 01       	movw	r28, r24
 b80:	83 e0       	ldi	r24, 0x03	; 3
 b82:	0e 94 ce 04 	call	0x99c	; 0x99c <read_adc_10>
 b86:	be 01       	movw	r22, r28
 b88:	68 1b       	sub	r22, r24
 b8a:	79 0b       	sbc	r23, r25
 b8c:	80 e0       	ldi	r24, 0x00	; 0
 b8e:	90 e0       	ldi	r25, 0x00	; 0
 b90:	0e 94 f7 06 	call	0xdee	; 0xdee <__floatunsisf>
 b94:	21 e9       	ldi	r18, 0x91	; 145
 b96:	3d ee       	ldi	r19, 0xED	; 237
 b98:	4d ec       	ldi	r20, 0xCD	; 205
 b9a:	51 e4       	ldi	r21, 0x41	; 65
 b9c:	0e 94 5d 07 	call	0xeba	; 0xeba <__mulsf3>
 ba0:	0e 94 c8 06 	call	0xd90	; 0xd90 <__fixunssfsi>
 ba4:	f8 01       	movw	r30, r16
 ba6:	77 83       	std	Z+7, r23	; 0x07
 ba8:	66 83       	std	Z+6, r22	; 0x06
}
 baa:	df 91       	pop	r29
 bac:	cf 91       	pop	r28
 bae:	1f 91       	pop	r17
 bb0:	0f 91       	pop	r16
 bb2:	08 95       	ret

00000bb4 <get_sensor_value>:

void get_sensor_value(uint8_t sensortype)
{
 bb4:	cf 93       	push	r28
 bb6:	c8 2f       	mov	r28, r24
	uint16_t val = 0;
	val = read_adc_10(0x06) * (1100/1024);
 bb8:	86 e0       	ldi	r24, 0x06	; 6
 bba:	0e 94 ce 04 	call	0x99c	; 0x99c <read_adc_10>
	if (sensortype)
 bbe:	cc 23       	and	r28, r28
 bc0:	51 f0       	breq	.+20     	; 0xbd6 <get_sensor_value+0x22>
	{
		sensorValue = val * (1000/47); // Messung A ueber einen 47R Widerstand
 bc2:	45 e1       	ldi	r20, 0x15	; 21
 bc4:	48 9f       	mul	r20, r24
 bc6:	90 01       	movw	r18, r0
 bc8:	49 9f       	mul	r20, r25
 bca:	30 0d       	add	r19, r0
 bcc:	11 24       	eor	r1, r1
 bce:	30 93 07 02 	sts	0x0207, r19	; 0x800207 <sensorValue+0x1>
 bd2:	20 93 06 02 	sts	0x0206, r18	; 0x800206 <sensorValue>
	else
	{
		sensorValue = sensorValue; //Messung mv
	}

}
 bd6:	cf 91       	pop	r28
 bd8:	08 95       	ret

00000bda <bus_process>:
 bda:	20 91 10 02 	lds	r18, 0x0210	; 0x800210 <readPointer>
 bde:	42 2f       	mov	r20, r18
 be0:	50 e0       	ldi	r21, 0x00	; 0
 be2:	80 91 12 02 	lds	r24, 0x0212	; 0x800212 <writePointer>
 be6:	90 e0       	ldi	r25, 0x00	; 0
 be8:	84 1b       	sub	r24, r20
 bea:	95 0b       	sbc	r25, r21
 bec:	9e 5f       	subi	r25, 0xFE	; 254
 bee:	91 78       	andi	r25, 0x81	; 129
 bf0:	99 23       	and	r25, r25
 bf2:	1c f4       	brge	.+6      	; 0xbfa <bus_process+0x20>
 bf4:	01 97       	sbiw	r24, 0x01	; 1
 bf6:	9e 6f       	ori	r25, 0xFE	; 254
 bf8:	01 96       	adiw	r24, 0x01	; 1
 bfa:	03 97       	sbiw	r24, 0x03	; 3
 bfc:	0c f4       	brge	.+2      	; 0xc00 <bus_process+0x26>
 bfe:	c7 c0       	rjmp	.+398    	; 0xd8e <bus_process+0x1b4>
 c00:	fa 01       	movw	r30, r20
 c02:	e8 5e       	subi	r30, 0xE8	; 232
 c04:	fd 4f       	sbci	r31, 0xFD	; 253
 c06:	80 81       	ld	r24, Z
 c08:	90 91 04 01 	lds	r25, 0x0104	; 0x800104 <START>
 c0c:	38 2f       	mov	r19, r24
 c0e:	30 7f       	andi	r19, 0xF0	; 240
 c10:	93 13       	cpse	r25, r19
 c12:	ba c0       	rjmp	.+372    	; 0xd88 <bus_process+0x1ae>
 c14:	8f 70       	andi	r24, 0x0F	; 15
 c16:	80 93 15 02 	sts	0x0215, r24	; 0x800215 <mode>
 c1a:	e1 e0       	ldi	r30, 0x01	; 1
 c1c:	e2 0f       	add	r30, r18
 c1e:	e0 93 10 02 	sts	0x0210, r30	; 0x800210 <readPointer>
 c22:	81 30       	cpi	r24, 0x01	; 1
 c24:	21 f0       	breq	.+8      	; 0xc2e <bus_process+0x54>
 c26:	84 30       	cpi	r24, 0x04	; 4
 c28:	09 f4       	brne	.+2      	; 0xc2c <bus_process+0x52>
 c2a:	57 c0       	rjmp	.+174    	; 0xcda <bus_process+0x100>
 c2c:	08 95       	ret
 c2e:	f0 e0       	ldi	r31, 0x00	; 0
 c30:	e8 5e       	subi	r30, 0xE8	; 232
 c32:	fd 4f       	sbci	r31, 0xFD	; 253
 c34:	40 81       	ld	r20, Z
 c36:	34 2f       	mov	r19, r20
 c38:	30 7e       	andi	r19, 0xE0	; 224
 c3a:	80 91 00 01 	lds	r24, 0x0100	; 0x800100 <__data_start>
 c3e:	38 13       	cpse	r19, r24
 c40:	30 c0       	rjmp	.+96     	; 0xca2 <bus_process+0xc8>
 c42:	4f 71       	andi	r20, 0x1F	; 31
 c44:	80 e1       	ldi	r24, 0x10	; 16
 c46:	48 9f       	mul	r20, r24
 c48:	a0 01       	movw	r20, r0
 c4a:	11 24       	eor	r1, r1
 c4c:	50 93 14 02 	sts	0x0214, r21	; 0x800214 <temp+0x1>
 c50:	40 93 13 02 	sts	0x0213, r20	; 0x800213 <temp>
 c54:	2e 5f       	subi	r18, 0xFE	; 254
 c56:	20 93 10 02 	sts	0x0210, r18	; 0x800210 <readPointer>
 c5a:	e2 2f       	mov	r30, r18
 c5c:	f0 e0       	ldi	r31, 0x00	; 0
 c5e:	e8 5e       	subi	r30, 0xE8	; 232
 c60:	fd 4f       	sbci	r31, 0xFD	; 253
 c62:	80 81       	ld	r24, Z
 c64:	82 95       	swap	r24
 c66:	8f 70       	andi	r24, 0x0F	; 15
 c68:	9a 01       	movw	r18, r20
 c6a:	28 0f       	add	r18, r24
 c6c:	31 1d       	adc	r19, r1
 c6e:	30 93 02 01 	sts	0x0102, r19	; 0x800102 <address+0x1>
 c72:	20 93 01 01 	sts	0x0101, r18	; 0x800101 <address>
 c76:	e8 e1       	ldi	r30, 0x18	; 24
 c78:	f4 e0       	ldi	r31, 0x04	; 4
 c7a:	9f 5f       	subi	r25, 0xFF	; 255
 c7c:	90 83       	st	Z, r25
 c7e:	c9 01       	movw	r24, r18
 c80:	01 96       	adiw	r24, 0x01	; 1
 c82:	92 95       	swap	r25
 c84:	82 95       	swap	r24
 c86:	8f 70       	andi	r24, 0x0F	; 15
 c88:	89 27       	eor	r24, r25
 c8a:	9f 70       	andi	r25, 0x0F	; 15
 c8c:	89 27       	eor	r24, r25
 c8e:	81 83       	std	Z+1, r24	; 0x01
 c90:	2f 5f       	subi	r18, 0xFF	; 255
 c92:	80 91 03 01 	lds	r24, 0x0103	; 0x800103 <STOP>
 c96:	90 e1       	ldi	r25, 0x10	; 16
 c98:	29 9f       	mul	r18, r25
 c9a:	80 0d       	add	r24, r0
 c9c:	11 24       	eor	r1, r1
 c9e:	82 83       	std	Z+2, r24	; 0x02
 ca0:	11 c0       	rjmp	.+34     	; 0xcc4 <bus_process+0xea>
 ca2:	a8 e1       	ldi	r26, 0x18	; 24
 ca4:	b4 e0       	ldi	r27, 0x04	; 4
 ca6:	9f 5f       	subi	r25, 0xFF	; 255
 ca8:	9c 93       	st	X, r25
 caa:	11 96       	adiw	r26, 0x01	; 1
 cac:	4c 93       	st	X, r20
 cae:	11 97       	sbiw	r26, 0x01	; 1
 cb0:	2e 5f       	subi	r18, 0xFE	; 254
 cb2:	20 93 10 02 	sts	0x0210, r18	; 0x800210 <readPointer>
 cb6:	e2 2f       	mov	r30, r18
 cb8:	f0 e0       	ldi	r31, 0x00	; 0
 cba:	e8 5e       	subi	r30, 0xE8	; 232
 cbc:	fd 4f       	sbci	r31, 0xFD	; 253
 cbe:	80 81       	ld	r24, Z
 cc0:	12 96       	adiw	r26, 0x02	; 2
 cc2:	8c 93       	st	X, r24
 cc4:	63 e0       	ldi	r22, 0x03	; 3
 cc6:	88 e1       	ldi	r24, 0x18	; 24
 cc8:	94 e0       	ldi	r25, 0x04	; 4
 cca:	0e 94 2e 01 	call	0x25c	; 0x25c <USART1_sendStringWL>
 cce:	80 91 0f 01 	lds	r24, 0x010F	; 0x80010f <readPointerU0>
 cd2:	8f 5f       	subi	r24, 0xFF	; 255
 cd4:	80 93 0f 01 	sts	0x010F, r24	; 0x80010f <readPointerU0>
 cd8:	08 95       	ret
 cda:	f0 e0       	ldi	r31, 0x00	; 0
 cdc:	e8 5e       	subi	r30, 0xE8	; 232
 cde:	fd 4f       	sbci	r31, 0xFD	; 253
 ce0:	80 81       	ld	r24, Z
 ce2:	40 91 00 01 	lds	r20, 0x0100	; 0x800100 <__data_start>
 ce6:	38 2f       	mov	r19, r24
 ce8:	30 7e       	andi	r19, 0xE0	; 224
 cea:	43 13       	cpse	r20, r19
 cec:	47 c0       	rjmp	.+142    	; 0xd7c <bus_process+0x1a2>
 cee:	2e 5f       	subi	r18, 0xFE	; 254
 cf0:	20 93 10 02 	sts	0x0210, r18	; 0x800210 <readPointer>
 cf4:	8f 71       	andi	r24, 0x1F	; 31
 cf6:	e2 2f       	mov	r30, r18
 cf8:	f0 e0       	ldi	r31, 0x00	; 0
 cfa:	e8 5e       	subi	r30, 0xE8	; 232
 cfc:	fd 4f       	sbci	r31, 0xFD	; 253
 cfe:	20 81       	ld	r18, Z
 d00:	22 95       	swap	r18
 d02:	2f 70       	andi	r18, 0x0F	; 15
 d04:	30 e0       	ldi	r19, 0x00	; 0
 d06:	50 e1       	ldi	r21, 0x10	; 16
 d08:	85 9f       	mul	r24, r21
 d0a:	20 0d       	add	r18, r0
 d0c:	31 1d       	adc	r19, r1
 d0e:	11 24       	eor	r1, r1
 d10:	30 93 14 02 	sts	0x0214, r19	; 0x800214 <temp+0x1>
 d14:	20 93 13 02 	sts	0x0213, r18	; 0x800213 <temp>
 d18:	e8 e1       	ldi	r30, 0x18	; 24
 d1a:	f4 e0       	ldi	r31, 0x04	; 4
 d1c:	9f 5f       	subi	r25, 0xFF	; 255
 d1e:	90 83       	st	Z, r25
 d20:	c9 01       	movw	r24, r18
 d22:	92 95       	swap	r25
 d24:	82 95       	swap	r24
 d26:	8f 70       	andi	r24, 0x0F	; 15
 d28:	89 27       	eor	r24, r25
 d2a:	9f 70       	andi	r25, 0x0F	; 15
 d2c:	89 27       	eor	r24, r25
 d2e:	50 e2       	ldi	r21, 0x20	; 32
 d30:	45 9f       	mul	r20, r21
 d32:	80 0d       	add	r24, r0
 d34:	11 24       	eor	r1, r1
 d36:	81 83       	std	Z+1, r24	; 0x01
 d38:	82 2f       	mov	r24, r18
 d3a:	82 95       	swap	r24
 d3c:	80 7f       	andi	r24, 0xF0	; 240
 d3e:	82 83       	std	Z+2, r24	; 0x02
 d40:	80 91 01 01 	lds	r24, 0x0101	; 0x800101 <address>
 d44:	90 91 02 01 	lds	r25, 0x0102	; 0x800102 <address+0x1>
 d48:	28 17       	cp	r18, r24
 d4a:	39 07       	cpc	r19, r25
 d4c:	99 f4       	brne	.+38     	; 0xd74 <bus_process+0x19a>
 d4e:	8f ea       	ldi	r24, 0xAF	; 175
 d50:	83 83       	std	Z+3, r24	; 0x03
 d52:	8e ef       	ldi	r24, 0xFE	; 254
 d54:	84 83       	std	Z+4, r24	; 0x04
 d56:	ed e1       	ldi	r30, 0x1D	; 29
 d58:	f4 e0       	ldi	r31, 0x04	; 4
 d5a:	2a e3       	ldi	r18, 0x3A	; 58
 d5c:	34 e0       	ldi	r19, 0x04	; 4
 d5e:	81 e0       	ldi	r24, 0x01	; 1
 d60:	81 93       	st	Z+, r24
 d62:	e2 17       	cp	r30, r18
 d64:	f3 07       	cpc	r31, r19
 d66:	e1 f7       	brne	.-8      	; 0xd60 <bus_process+0x186>
 d68:	e8 e1       	ldi	r30, 0x18	; 24
 d6a:	f4 e0       	ldi	r31, 0x04	; 4
 d6c:	8f ea       	ldi	r24, 0xAF	; 175
 d6e:	82 a3       	std	Z+34, r24	; 0x22
 d70:	8e ef       	ldi	r24, 0xFE	; 254
 d72:	83 a3       	std	Z+35, r24	; 0x23
 d74:	80 91 03 01 	lds	r24, 0x0103	; 0x800103 <STOP>
 d78:	80 93 3c 04 	sts	0x043C, r24	; 0x80043c <frame+0x24>
 d7c:	65 e2       	ldi	r22, 0x25	; 37
 d7e:	88 e1       	ldi	r24, 0x18	; 24
 d80:	94 e0       	ldi	r25, 0x04	; 4
 d82:	0e 94 2e 01 	call	0x25c	; 0x25c <USART1_sendStringWL>
 d86:	08 95       	ret
 d88:	2f 5f       	subi	r18, 0xFF	; 255
 d8a:	20 93 10 02 	sts	0x0210, r18	; 0x800210 <readPointer>
 d8e:	08 95       	ret

00000d90 <__fixunssfsi>:
 d90:	0e 94 3c 07 	call	0xe78	; 0xe78 <__fp_splitA>
 d94:	88 f0       	brcs	.+34     	; 0xdb8 <__fixunssfsi+0x28>
 d96:	9f 57       	subi	r25, 0x7F	; 127
 d98:	98 f0       	brcs	.+38     	; 0xdc0 <__fixunssfsi+0x30>
 d9a:	b9 2f       	mov	r27, r25
 d9c:	99 27       	eor	r25, r25
 d9e:	b7 51       	subi	r27, 0x17	; 23
 da0:	b0 f0       	brcs	.+44     	; 0xdce <__fixunssfsi+0x3e>
 da2:	e1 f0       	breq	.+56     	; 0xddc <__fixunssfsi+0x4c>
 da4:	66 0f       	add	r22, r22
 da6:	77 1f       	adc	r23, r23
 da8:	88 1f       	adc	r24, r24
 daa:	99 1f       	adc	r25, r25
 dac:	1a f0       	brmi	.+6      	; 0xdb4 <__fixunssfsi+0x24>
 dae:	ba 95       	dec	r27
 db0:	c9 f7       	brne	.-14     	; 0xda4 <__fixunssfsi+0x14>
 db2:	14 c0       	rjmp	.+40     	; 0xddc <__fixunssfsi+0x4c>
 db4:	b1 30       	cpi	r27, 0x01	; 1
 db6:	91 f0       	breq	.+36     	; 0xddc <__fixunssfsi+0x4c>
 db8:	0e 94 56 07 	call	0xeac	; 0xeac <__fp_zero>
 dbc:	b1 e0       	ldi	r27, 0x01	; 1
 dbe:	08 95       	ret
 dc0:	0c 94 56 07 	jmp	0xeac	; 0xeac <__fp_zero>
 dc4:	67 2f       	mov	r22, r23
 dc6:	78 2f       	mov	r23, r24
 dc8:	88 27       	eor	r24, r24
 dca:	b8 5f       	subi	r27, 0xF8	; 248
 dcc:	39 f0       	breq	.+14     	; 0xddc <__fixunssfsi+0x4c>
 dce:	b9 3f       	cpi	r27, 0xF9	; 249
 dd0:	cc f3       	brlt	.-14     	; 0xdc4 <__fixunssfsi+0x34>
 dd2:	86 95       	lsr	r24
 dd4:	77 95       	ror	r23
 dd6:	67 95       	ror	r22
 dd8:	b3 95       	inc	r27
 dda:	d9 f7       	brne	.-10     	; 0xdd2 <__fixunssfsi+0x42>
 ddc:	3e f4       	brtc	.+14     	; 0xdec <__fixunssfsi+0x5c>
 dde:	90 95       	com	r25
 de0:	80 95       	com	r24
 de2:	70 95       	com	r23
 de4:	61 95       	neg	r22
 de6:	7f 4f       	sbci	r23, 0xFF	; 255
 de8:	8f 4f       	sbci	r24, 0xFF	; 255
 dea:	9f 4f       	sbci	r25, 0xFF	; 255
 dec:	08 95       	ret

00000dee <__floatunsisf>:
 dee:	e8 94       	clt
 df0:	09 c0       	rjmp	.+18     	; 0xe04 <__floatsisf+0x12>

00000df2 <__floatsisf>:
 df2:	97 fb       	bst	r25, 7
 df4:	3e f4       	brtc	.+14     	; 0xe04 <__floatsisf+0x12>
 df6:	90 95       	com	r25
 df8:	80 95       	com	r24
 dfa:	70 95       	com	r23
 dfc:	61 95       	neg	r22
 dfe:	7f 4f       	sbci	r23, 0xFF	; 255
 e00:	8f 4f       	sbci	r24, 0xFF	; 255
 e02:	9f 4f       	sbci	r25, 0xFF	; 255
 e04:	99 23       	and	r25, r25
 e06:	a9 f0       	breq	.+42     	; 0xe32 <__floatsisf+0x40>
 e08:	f9 2f       	mov	r31, r25
 e0a:	96 e9       	ldi	r25, 0x96	; 150
 e0c:	bb 27       	eor	r27, r27
 e0e:	93 95       	inc	r25
 e10:	f6 95       	lsr	r31
 e12:	87 95       	ror	r24
 e14:	77 95       	ror	r23
 e16:	67 95       	ror	r22
 e18:	b7 95       	ror	r27
 e1a:	f1 11       	cpse	r31, r1
 e1c:	f8 cf       	rjmp	.-16     	; 0xe0e <__floatsisf+0x1c>
 e1e:	fa f4       	brpl	.+62     	; 0xe5e <__floatsisf+0x6c>
 e20:	bb 0f       	add	r27, r27
 e22:	11 f4       	brne	.+4      	; 0xe28 <__floatsisf+0x36>
 e24:	60 ff       	sbrs	r22, 0
 e26:	1b c0       	rjmp	.+54     	; 0xe5e <__floatsisf+0x6c>
 e28:	6f 5f       	subi	r22, 0xFF	; 255
 e2a:	7f 4f       	sbci	r23, 0xFF	; 255
 e2c:	8f 4f       	sbci	r24, 0xFF	; 255
 e2e:	9f 4f       	sbci	r25, 0xFF	; 255
 e30:	16 c0       	rjmp	.+44     	; 0xe5e <__floatsisf+0x6c>
 e32:	88 23       	and	r24, r24
 e34:	11 f0       	breq	.+4      	; 0xe3a <__floatsisf+0x48>
 e36:	96 e9       	ldi	r25, 0x96	; 150
 e38:	11 c0       	rjmp	.+34     	; 0xe5c <__floatsisf+0x6a>
 e3a:	77 23       	and	r23, r23
 e3c:	21 f0       	breq	.+8      	; 0xe46 <__floatsisf+0x54>
 e3e:	9e e8       	ldi	r25, 0x8E	; 142
 e40:	87 2f       	mov	r24, r23
 e42:	76 2f       	mov	r23, r22
 e44:	05 c0       	rjmp	.+10     	; 0xe50 <__floatsisf+0x5e>
 e46:	66 23       	and	r22, r22
 e48:	71 f0       	breq	.+28     	; 0xe66 <__floatsisf+0x74>
 e4a:	96 e8       	ldi	r25, 0x86	; 134
 e4c:	86 2f       	mov	r24, r22
 e4e:	70 e0       	ldi	r23, 0x00	; 0
 e50:	60 e0       	ldi	r22, 0x00	; 0
 e52:	2a f0       	brmi	.+10     	; 0xe5e <__floatsisf+0x6c>
 e54:	9a 95       	dec	r25
 e56:	66 0f       	add	r22, r22
 e58:	77 1f       	adc	r23, r23
 e5a:	88 1f       	adc	r24, r24
 e5c:	da f7       	brpl	.-10     	; 0xe54 <__floatsisf+0x62>
 e5e:	88 0f       	add	r24, r24
 e60:	96 95       	lsr	r25
 e62:	87 95       	ror	r24
 e64:	97 f9       	bld	r25, 7
 e66:	08 95       	ret

00000e68 <__fp_split3>:
 e68:	57 fd       	sbrc	r21, 7
 e6a:	90 58       	subi	r25, 0x80	; 128
 e6c:	44 0f       	add	r20, r20
 e6e:	55 1f       	adc	r21, r21
 e70:	59 f0       	breq	.+22     	; 0xe88 <__fp_splitA+0x10>
 e72:	5f 3f       	cpi	r21, 0xFF	; 255
 e74:	71 f0       	breq	.+28     	; 0xe92 <__fp_splitA+0x1a>
 e76:	47 95       	ror	r20

00000e78 <__fp_splitA>:
 e78:	88 0f       	add	r24, r24
 e7a:	97 fb       	bst	r25, 7
 e7c:	99 1f       	adc	r25, r25
 e7e:	61 f0       	breq	.+24     	; 0xe98 <__fp_splitA+0x20>
 e80:	9f 3f       	cpi	r25, 0xFF	; 255
 e82:	79 f0       	breq	.+30     	; 0xea2 <__fp_splitA+0x2a>
 e84:	87 95       	ror	r24
 e86:	08 95       	ret
 e88:	12 16       	cp	r1, r18
 e8a:	13 06       	cpc	r1, r19
 e8c:	14 06       	cpc	r1, r20
 e8e:	55 1f       	adc	r21, r21
 e90:	f2 cf       	rjmp	.-28     	; 0xe76 <__fp_split3+0xe>
 e92:	46 95       	lsr	r20
 e94:	f1 df       	rcall	.-30     	; 0xe78 <__fp_splitA>
 e96:	08 c0       	rjmp	.+16     	; 0xea8 <__fp_splitA+0x30>
 e98:	16 16       	cp	r1, r22
 e9a:	17 06       	cpc	r1, r23
 e9c:	18 06       	cpc	r1, r24
 e9e:	99 1f       	adc	r25, r25
 ea0:	f1 cf       	rjmp	.-30     	; 0xe84 <__fp_splitA+0xc>
 ea2:	86 95       	lsr	r24
 ea4:	71 05       	cpc	r23, r1
 ea6:	61 05       	cpc	r22, r1
 ea8:	08 94       	sec
 eaa:	08 95       	ret

00000eac <__fp_zero>:
 eac:	e8 94       	clt

00000eae <__fp_szero>:
 eae:	bb 27       	eor	r27, r27
 eb0:	66 27       	eor	r22, r22
 eb2:	77 27       	eor	r23, r23
 eb4:	cb 01       	movw	r24, r22
 eb6:	97 f9       	bld	r25, 7
 eb8:	08 95       	ret

00000eba <__mulsf3>:
 eba:	0e 94 70 07 	call	0xee0	; 0xee0 <__mulsf3x>
 ebe:	0c 94 e1 07 	jmp	0xfc2	; 0xfc2 <__fp_round>
 ec2:	0e 94 d3 07 	call	0xfa6	; 0xfa6 <__fp_pscA>
 ec6:	38 f0       	brcs	.+14     	; 0xed6 <__mulsf3+0x1c>
 ec8:	0e 94 da 07 	call	0xfb4	; 0xfb4 <__fp_pscB>
 ecc:	20 f0       	brcs	.+8      	; 0xed6 <__mulsf3+0x1c>
 ece:	95 23       	and	r25, r21
 ed0:	11 f0       	breq	.+4      	; 0xed6 <__mulsf3+0x1c>
 ed2:	0c 94 ca 07 	jmp	0xf94	; 0xf94 <__fp_inf>
 ed6:	0c 94 d0 07 	jmp	0xfa0	; 0xfa0 <__fp_nan>
 eda:	11 24       	eor	r1, r1
 edc:	0c 94 57 07 	jmp	0xeae	; 0xeae <__fp_szero>

00000ee0 <__mulsf3x>:
 ee0:	0e 94 34 07 	call	0xe68	; 0xe68 <__fp_split3>
 ee4:	70 f3       	brcs	.-36     	; 0xec2 <__mulsf3+0x8>

00000ee6 <__mulsf3_pse>:
 ee6:	95 9f       	mul	r25, r21
 ee8:	c1 f3       	breq	.-16     	; 0xeda <__mulsf3+0x20>
 eea:	95 0f       	add	r25, r21
 eec:	50 e0       	ldi	r21, 0x00	; 0
 eee:	55 1f       	adc	r21, r21
 ef0:	62 9f       	mul	r22, r18
 ef2:	f0 01       	movw	r30, r0
 ef4:	72 9f       	mul	r23, r18
 ef6:	bb 27       	eor	r27, r27
 ef8:	f0 0d       	add	r31, r0
 efa:	b1 1d       	adc	r27, r1
 efc:	63 9f       	mul	r22, r19
 efe:	aa 27       	eor	r26, r26
 f00:	f0 0d       	add	r31, r0
 f02:	b1 1d       	adc	r27, r1
 f04:	aa 1f       	adc	r26, r26
 f06:	64 9f       	mul	r22, r20
 f08:	66 27       	eor	r22, r22
 f0a:	b0 0d       	add	r27, r0
 f0c:	a1 1d       	adc	r26, r1
 f0e:	66 1f       	adc	r22, r22
 f10:	82 9f       	mul	r24, r18
 f12:	22 27       	eor	r18, r18
 f14:	b0 0d       	add	r27, r0
 f16:	a1 1d       	adc	r26, r1
 f18:	62 1f       	adc	r22, r18
 f1a:	73 9f       	mul	r23, r19
 f1c:	b0 0d       	add	r27, r0
 f1e:	a1 1d       	adc	r26, r1
 f20:	62 1f       	adc	r22, r18
 f22:	83 9f       	mul	r24, r19
 f24:	a0 0d       	add	r26, r0
 f26:	61 1d       	adc	r22, r1
 f28:	22 1f       	adc	r18, r18
 f2a:	74 9f       	mul	r23, r20
 f2c:	33 27       	eor	r19, r19
 f2e:	a0 0d       	add	r26, r0
 f30:	61 1d       	adc	r22, r1
 f32:	23 1f       	adc	r18, r19
 f34:	84 9f       	mul	r24, r20
 f36:	60 0d       	add	r22, r0
 f38:	21 1d       	adc	r18, r1
 f3a:	82 2f       	mov	r24, r18
 f3c:	76 2f       	mov	r23, r22
 f3e:	6a 2f       	mov	r22, r26
 f40:	11 24       	eor	r1, r1
 f42:	9f 57       	subi	r25, 0x7F	; 127
 f44:	50 40       	sbci	r21, 0x00	; 0
 f46:	9a f0       	brmi	.+38     	; 0xf6e <__mulsf3_pse+0x88>
 f48:	f1 f0       	breq	.+60     	; 0xf86 <__mulsf3_pse+0xa0>
 f4a:	88 23       	and	r24, r24
 f4c:	4a f0       	brmi	.+18     	; 0xf60 <__mulsf3_pse+0x7a>
 f4e:	ee 0f       	add	r30, r30
 f50:	ff 1f       	adc	r31, r31
 f52:	bb 1f       	adc	r27, r27
 f54:	66 1f       	adc	r22, r22
 f56:	77 1f       	adc	r23, r23
 f58:	88 1f       	adc	r24, r24
 f5a:	91 50       	subi	r25, 0x01	; 1
 f5c:	50 40       	sbci	r21, 0x00	; 0
 f5e:	a9 f7       	brne	.-22     	; 0xf4a <__mulsf3_pse+0x64>
 f60:	9e 3f       	cpi	r25, 0xFE	; 254
 f62:	51 05       	cpc	r21, r1
 f64:	80 f0       	brcs	.+32     	; 0xf86 <__mulsf3_pse+0xa0>
 f66:	0c 94 ca 07 	jmp	0xf94	; 0xf94 <__fp_inf>
 f6a:	0c 94 57 07 	jmp	0xeae	; 0xeae <__fp_szero>
 f6e:	5f 3f       	cpi	r21, 0xFF	; 255
 f70:	e4 f3       	brlt	.-8      	; 0xf6a <__mulsf3_pse+0x84>
 f72:	98 3e       	cpi	r25, 0xE8	; 232
 f74:	d4 f3       	brlt	.-12     	; 0xf6a <__mulsf3_pse+0x84>
 f76:	86 95       	lsr	r24
 f78:	77 95       	ror	r23
 f7a:	67 95       	ror	r22
 f7c:	b7 95       	ror	r27
 f7e:	f7 95       	ror	r31
 f80:	e7 95       	ror	r30
 f82:	9f 5f       	subi	r25, 0xFF	; 255
 f84:	c1 f7       	brne	.-16     	; 0xf76 <__mulsf3_pse+0x90>
 f86:	fe 2b       	or	r31, r30
 f88:	88 0f       	add	r24, r24
 f8a:	91 1d       	adc	r25, r1
 f8c:	96 95       	lsr	r25
 f8e:	87 95       	ror	r24
 f90:	97 f9       	bld	r25, 7
 f92:	08 95       	ret

00000f94 <__fp_inf>:
 f94:	97 f9       	bld	r25, 7
 f96:	9f 67       	ori	r25, 0x7F	; 127
 f98:	80 e8       	ldi	r24, 0x80	; 128
 f9a:	70 e0       	ldi	r23, 0x00	; 0
 f9c:	60 e0       	ldi	r22, 0x00	; 0
 f9e:	08 95       	ret

00000fa0 <__fp_nan>:
 fa0:	9f ef       	ldi	r25, 0xFF	; 255
 fa2:	80 ec       	ldi	r24, 0xC0	; 192
 fa4:	08 95       	ret

00000fa6 <__fp_pscA>:
 fa6:	00 24       	eor	r0, r0
 fa8:	0a 94       	dec	r0
 faa:	16 16       	cp	r1, r22
 fac:	17 06       	cpc	r1, r23
 fae:	18 06       	cpc	r1, r24
 fb0:	09 06       	cpc	r0, r25
 fb2:	08 95       	ret

00000fb4 <__fp_pscB>:
 fb4:	00 24       	eor	r0, r0
 fb6:	0a 94       	dec	r0
 fb8:	12 16       	cp	r1, r18
 fba:	13 06       	cpc	r1, r19
 fbc:	14 06       	cpc	r1, r20
 fbe:	05 06       	cpc	r0, r21
 fc0:	08 95       	ret

00000fc2 <__fp_round>:
 fc2:	09 2e       	mov	r0, r25
 fc4:	03 94       	inc	r0
 fc6:	00 0c       	add	r0, r0
 fc8:	11 f4       	brne	.+4      	; 0xfce <__fp_round+0xc>
 fca:	88 23       	and	r24, r24
 fcc:	52 f0       	brmi	.+20     	; 0xfe2 <__fp_round+0x20>
 fce:	bb 0f       	add	r27, r27
 fd0:	40 f4       	brcc	.+16     	; 0xfe2 <__fp_round+0x20>
 fd2:	bf 2b       	or	r27, r31
 fd4:	11 f4       	brne	.+4      	; 0xfda <__fp_round+0x18>
 fd6:	60 ff       	sbrs	r22, 0
 fd8:	04 c0       	rjmp	.+8      	; 0xfe2 <__fp_round+0x20>
 fda:	6f 5f       	subi	r22, 0xFF	; 255
 fdc:	7f 4f       	sbci	r23, 0xFF	; 255
 fde:	8f 4f       	sbci	r24, 0xFF	; 255
 fe0:	9f 4f       	sbci	r25, 0xFF	; 255
 fe2:	08 95       	ret

00000fe4 <_exit>:
 fe4:	f8 94       	cli

00000fe6 <__stop_program>:
 fe6:	ff cf       	rjmp	.-2      	; 0xfe6 <__stop_program>
